
ctarget:     file format elf64-x86-64


Disassembly of section .init:

0000000000400c68 <_init>:
  400c68:	48 83 ec 08          	sub    $0x8,%rsp
  400c6c:	48 8b 05 85 43 20 00 	mov    0x204385(%rip),%rax        # 604ff8 <_DYNAMIC+0x1e0>
  400c73:	48 85 c0             	test   %rax,%rax
  400c76:	74 05                	je     400c7d <_init+0x15>
  400c78:	e8 43 02 00 00       	callq  400ec0 <socket@plt+0x10>
  400c7d:	48 83 c4 08          	add    $0x8,%rsp
  400c81:	c3                   	retq   

Disassembly of section .plt:

0000000000400c90 <strcasecmp@plt-0x10>:
  400c90:	ff 35 72 43 20 00    	pushq  0x204372(%rip)        # 605008 <_GLOBAL_OFFSET_TABLE_+0x8>
  400c96:	ff 25 74 43 20 00    	jmpq   *0x204374(%rip)        # 605010 <_GLOBAL_OFFSET_TABLE_+0x10>
  400c9c:	0f 1f 40 00          	nopl   0x0(%rax)

0000000000400ca0 <strcasecmp@plt>:
  400ca0:	ff 25 72 43 20 00    	jmpq   *0x204372(%rip)        # 605018 <_GLOBAL_OFFSET_TABLE_+0x18>
  400ca6:	68 00 00 00 00       	pushq  $0x0
  400cab:	e9 e0 ff ff ff       	jmpq   400c90 <_init+0x28>

0000000000400cb0 <__errno_location@plt>:
  400cb0:	ff 25 6a 43 20 00    	jmpq   *0x20436a(%rip)        # 605020 <_GLOBAL_OFFSET_TABLE_+0x20>
  400cb6:	68 01 00 00 00       	pushq  $0x1
  400cbb:	e9 d0 ff ff ff       	jmpq   400c90 <_init+0x28>

0000000000400cc0 <srandom@plt>:
  400cc0:	ff 25 62 43 20 00    	jmpq   *0x204362(%rip)        # 605028 <_GLOBAL_OFFSET_TABLE_+0x28>
  400cc6:	68 02 00 00 00       	pushq  $0x2
  400ccb:	e9 c0 ff ff ff       	jmpq   400c90 <_init+0x28>

0000000000400cd0 <strncmp@plt>:
  400cd0:	ff 25 5a 43 20 00    	jmpq   *0x20435a(%rip)        # 605030 <_GLOBAL_OFFSET_TABLE_+0x30>
  400cd6:	68 03 00 00 00       	pushq  $0x3
  400cdb:	e9 b0 ff ff ff       	jmpq   400c90 <_init+0x28>

0000000000400ce0 <strcpy@plt>:
  400ce0:	ff 25 52 43 20 00    	jmpq   *0x204352(%rip)        # 605038 <_GLOBAL_OFFSET_TABLE_+0x38>
  400ce6:	68 04 00 00 00       	pushq  $0x4
  400ceb:	e9 a0 ff ff ff       	jmpq   400c90 <_init+0x28>

0000000000400cf0 <puts@plt>:
  400cf0:	ff 25 4a 43 20 00    	jmpq   *0x20434a(%rip)        # 605040 <_GLOBAL_OFFSET_TABLE_+0x40>
  400cf6:	68 05 00 00 00       	pushq  $0x5
  400cfb:	e9 90 ff ff ff       	jmpq   400c90 <_init+0x28>

0000000000400d00 <write@plt>:
  400d00:	ff 25 42 43 20 00    	jmpq   *0x204342(%rip)        # 605048 <_GLOBAL_OFFSET_TABLE_+0x48>
  400d06:	68 06 00 00 00       	pushq  $0x6
  400d0b:	e9 80 ff ff ff       	jmpq   400c90 <_init+0x28>

0000000000400d10 <__stack_chk_fail@plt>:
  400d10:	ff 25 3a 43 20 00    	jmpq   *0x20433a(%rip)        # 605050 <_GLOBAL_OFFSET_TABLE_+0x50>
  400d16:	68 07 00 00 00       	pushq  $0x7
  400d1b:	e9 70 ff ff ff       	jmpq   400c90 <_init+0x28>

0000000000400d20 <mmap@plt>:
  400d20:	ff 25 32 43 20 00    	jmpq   *0x204332(%rip)        # 605058 <_GLOBAL_OFFSET_TABLE_+0x58>
  400d26:	68 08 00 00 00       	pushq  $0x8
  400d2b:	e9 60 ff ff ff       	jmpq   400c90 <_init+0x28>

0000000000400d30 <memset@plt>:
  400d30:	ff 25 2a 43 20 00    	jmpq   *0x20432a(%rip)        # 605060 <_GLOBAL_OFFSET_TABLE_+0x60>
  400d36:	68 09 00 00 00       	pushq  $0x9
  400d3b:	e9 50 ff ff ff       	jmpq   400c90 <_init+0x28>

0000000000400d40 <alarm@plt>:
  400d40:	ff 25 22 43 20 00    	jmpq   *0x204322(%rip)        # 605068 <_GLOBAL_OFFSET_TABLE_+0x68>
  400d46:	68 0a 00 00 00       	pushq  $0xa
  400d4b:	e9 40 ff ff ff       	jmpq   400c90 <_init+0x28>

0000000000400d50 <close@plt>:
  400d50:	ff 25 1a 43 20 00    	jmpq   *0x20431a(%rip)        # 605070 <_GLOBAL_OFFSET_TABLE_+0x70>
  400d56:	68 0b 00 00 00       	pushq  $0xb
  400d5b:	e9 30 ff ff ff       	jmpq   400c90 <_init+0x28>

0000000000400d60 <read@plt>:
  400d60:	ff 25 12 43 20 00    	jmpq   *0x204312(%rip)        # 605078 <_GLOBAL_OFFSET_TABLE_+0x78>
  400d66:	68 0c 00 00 00       	pushq  $0xc
  400d6b:	e9 20 ff ff ff       	jmpq   400c90 <_init+0x28>

0000000000400d70 <__libc_start_main@plt>:
  400d70:	ff 25 0a 43 20 00    	jmpq   *0x20430a(%rip)        # 605080 <_GLOBAL_OFFSET_TABLE_+0x80>
  400d76:	68 0d 00 00 00       	pushq  $0xd
  400d7b:	e9 10 ff ff ff       	jmpq   400c90 <_init+0x28>

0000000000400d80 <signal@plt>:
  400d80:	ff 25 02 43 20 00    	jmpq   *0x204302(%rip)        # 605088 <_GLOBAL_OFFSET_TABLE_+0x88>
  400d86:	68 0e 00 00 00       	pushq  $0xe
  400d8b:	e9 00 ff ff ff       	jmpq   400c90 <_init+0x28>

0000000000400d90 <gethostbyname@plt>:
  400d90:	ff 25 fa 42 20 00    	jmpq   *0x2042fa(%rip)        # 605090 <_GLOBAL_OFFSET_TABLE_+0x90>
  400d96:	68 0f 00 00 00       	pushq  $0xf
  400d9b:	e9 f0 fe ff ff       	jmpq   400c90 <_init+0x28>

0000000000400da0 <__memmove_chk@plt>:
  400da0:	ff 25 f2 42 20 00    	jmpq   *0x2042f2(%rip)        # 605098 <_GLOBAL_OFFSET_TABLE_+0x98>
  400da6:	68 10 00 00 00       	pushq  $0x10
  400dab:	e9 e0 fe ff ff       	jmpq   400c90 <_init+0x28>

0000000000400db0 <strtol@plt>:
  400db0:	ff 25 ea 42 20 00    	jmpq   *0x2042ea(%rip)        # 6050a0 <_GLOBAL_OFFSET_TABLE_+0xa0>
  400db6:	68 11 00 00 00       	pushq  $0x11
  400dbb:	e9 d0 fe ff ff       	jmpq   400c90 <_init+0x28>

0000000000400dc0 <memcpy@plt>:
  400dc0:	ff 25 e2 42 20 00    	jmpq   *0x2042e2(%rip)        # 6050a8 <_GLOBAL_OFFSET_TABLE_+0xa8>
  400dc6:	68 12 00 00 00       	pushq  $0x12
  400dcb:	e9 c0 fe ff ff       	jmpq   400c90 <_init+0x28>

0000000000400dd0 <time@plt>:
  400dd0:	ff 25 da 42 20 00    	jmpq   *0x2042da(%rip)        # 6050b0 <_GLOBAL_OFFSET_TABLE_+0xb0>
  400dd6:	68 13 00 00 00       	pushq  $0x13
  400ddb:	e9 b0 fe ff ff       	jmpq   400c90 <_init+0x28>

0000000000400de0 <random@plt>:
  400de0:	ff 25 d2 42 20 00    	jmpq   *0x2042d2(%rip)        # 6050b8 <_GLOBAL_OFFSET_TABLE_+0xb8>
  400de6:	68 14 00 00 00       	pushq  $0x14
  400deb:	e9 a0 fe ff ff       	jmpq   400c90 <_init+0x28>

0000000000400df0 <_IO_getc@plt>:
  400df0:	ff 25 ca 42 20 00    	jmpq   *0x2042ca(%rip)        # 6050c0 <_GLOBAL_OFFSET_TABLE_+0xc0>
  400df6:	68 15 00 00 00       	pushq  $0x15
  400dfb:	e9 90 fe ff ff       	jmpq   400c90 <_init+0x28>

0000000000400e00 <__isoc99_sscanf@plt>:
  400e00:	ff 25 c2 42 20 00    	jmpq   *0x2042c2(%rip)        # 6050c8 <_GLOBAL_OFFSET_TABLE_+0xc8>
  400e06:	68 16 00 00 00       	pushq  $0x16
  400e0b:	e9 80 fe ff ff       	jmpq   400c90 <_init+0x28>

0000000000400e10 <munmap@plt>:
  400e10:	ff 25 ba 42 20 00    	jmpq   *0x2042ba(%rip)        # 6050d0 <_GLOBAL_OFFSET_TABLE_+0xd0>
  400e16:	68 17 00 00 00       	pushq  $0x17
  400e1b:	e9 70 fe ff ff       	jmpq   400c90 <_init+0x28>

0000000000400e20 <__printf_chk@plt>:
  400e20:	ff 25 b2 42 20 00    	jmpq   *0x2042b2(%rip)        # 6050d8 <_GLOBAL_OFFSET_TABLE_+0xd8>
  400e26:	68 18 00 00 00       	pushq  $0x18
  400e2b:	e9 60 fe ff ff       	jmpq   400c90 <_init+0x28>

0000000000400e30 <fopen@plt>:
  400e30:	ff 25 aa 42 20 00    	jmpq   *0x2042aa(%rip)        # 6050e0 <_GLOBAL_OFFSET_TABLE_+0xe0>
  400e36:	68 19 00 00 00       	pushq  $0x19
  400e3b:	e9 50 fe ff ff       	jmpq   400c90 <_init+0x28>

0000000000400e40 <getopt@plt>:
  400e40:	ff 25 a2 42 20 00    	jmpq   *0x2042a2(%rip)        # 6050e8 <_GLOBAL_OFFSET_TABLE_+0xe8>
  400e46:	68 1a 00 00 00       	pushq  $0x1a
  400e4b:	e9 40 fe ff ff       	jmpq   400c90 <_init+0x28>

0000000000400e50 <strtoul@plt>:
  400e50:	ff 25 9a 42 20 00    	jmpq   *0x20429a(%rip)        # 6050f0 <_GLOBAL_OFFSET_TABLE_+0xf0>
  400e56:	68 1b 00 00 00       	pushq  $0x1b
  400e5b:	e9 30 fe ff ff       	jmpq   400c90 <_init+0x28>

0000000000400e60 <gethostname@plt>:
  400e60:	ff 25 92 42 20 00    	jmpq   *0x204292(%rip)        # 6050f8 <_GLOBAL_OFFSET_TABLE_+0xf8>
  400e66:	68 1c 00 00 00       	pushq  $0x1c
  400e6b:	e9 20 fe ff ff       	jmpq   400c90 <_init+0x28>

0000000000400e70 <exit@plt>:
  400e70:	ff 25 8a 42 20 00    	jmpq   *0x20428a(%rip)        # 605100 <_GLOBAL_OFFSET_TABLE_+0x100>
  400e76:	68 1d 00 00 00       	pushq  $0x1d
  400e7b:	e9 10 fe ff ff       	jmpq   400c90 <_init+0x28>

0000000000400e80 <connect@plt>:
  400e80:	ff 25 82 42 20 00    	jmpq   *0x204282(%rip)        # 605108 <_GLOBAL_OFFSET_TABLE_+0x108>
  400e86:	68 1e 00 00 00       	pushq  $0x1e
  400e8b:	e9 00 fe ff ff       	jmpq   400c90 <_init+0x28>

0000000000400e90 <__fprintf_chk@plt>:
  400e90:	ff 25 7a 42 20 00    	jmpq   *0x20427a(%rip)        # 605110 <_GLOBAL_OFFSET_TABLE_+0x110>
  400e96:	68 1f 00 00 00       	pushq  $0x1f
  400e9b:	e9 f0 fd ff ff       	jmpq   400c90 <_init+0x28>

0000000000400ea0 <__sprintf_chk@plt>:
  400ea0:	ff 25 72 42 20 00    	jmpq   *0x204272(%rip)        # 605118 <_GLOBAL_OFFSET_TABLE_+0x118>
  400ea6:	68 20 00 00 00       	pushq  $0x20
  400eab:	e9 e0 fd ff ff       	jmpq   400c90 <_init+0x28>

0000000000400eb0 <socket@plt>:
  400eb0:	ff 25 6a 42 20 00    	jmpq   *0x20426a(%rip)        # 605120 <_GLOBAL_OFFSET_TABLE_+0x120>
  400eb6:	68 21 00 00 00       	pushq  $0x21
  400ebb:	e9 d0 fd ff ff       	jmpq   400c90 <_init+0x28>

Disassembly of section .plt.got:

0000000000400ec0 <.plt.got>:
  400ec0:	ff 25 32 41 20 00    	jmpq   *0x204132(%rip)        # 604ff8 <_DYNAMIC+0x1e0>
  400ec6:	66 90                	xchg   %ax,%ax

Disassembly of section .text:

0000000000400ed0 <_start>:
  400ed0:	31 ed                	xor    %ebp,%ebp
  400ed2:	49 89 d1             	mov    %rdx,%r9
  400ed5:	5e                   	pop    %rsi
  400ed6:	48 89 e2             	mov    %rsp,%rdx
  400ed9:	48 83 e4 f0          	and    $0xfffffffffffffff0,%rsp
  400edd:	50                   	push   %rax
  400ede:	54                   	push   %rsp
  400edf:	49 c7 c0 80 2e 40 00 	mov    $0x402e80,%r8
  400ee6:	48 c7 c1 10 2e 40 00 	mov    $0x402e10,%rcx
  400eed:	48 c7 c7 d5 11 40 00 	mov    $0x4011d5,%rdi
  400ef4:	e8 77 fe ff ff       	callq  400d70 <__libc_start_main@plt>
  400ef9:	f4                   	hlt    
  400efa:	66 0f 1f 44 00 00    	nopw   0x0(%rax,%rax,1)

0000000000400f00 <deregister_tm_clones>:
  400f00:	b8 b7 54 60 00       	mov    $0x6054b7,%eax
  400f05:	55                   	push   %rbp
  400f06:	48 2d b0 54 60 00    	sub    $0x6054b0,%rax
  400f0c:	48 83 f8 0e          	cmp    $0xe,%rax
  400f10:	48 89 e5             	mov    %rsp,%rbp
  400f13:	76 1b                	jbe    400f30 <deregister_tm_clones+0x30>
  400f15:	b8 00 00 00 00       	mov    $0x0,%eax
  400f1a:	48 85 c0             	test   %rax,%rax
  400f1d:	74 11                	je     400f30 <deregister_tm_clones+0x30>
  400f1f:	5d                   	pop    %rbp
  400f20:	bf b0 54 60 00       	mov    $0x6054b0,%edi
  400f25:	ff e0                	jmpq   *%rax
  400f27:	66 0f 1f 84 00 00 00 	nopw   0x0(%rax,%rax,1)
  400f2e:	00 00 
  400f30:	5d                   	pop    %rbp
  400f31:	c3                   	retq   
  400f32:	0f 1f 40 00          	nopl   0x0(%rax)
  400f36:	66 2e 0f 1f 84 00 00 	nopw   %cs:0x0(%rax,%rax,1)
  400f3d:	00 00 00 

0000000000400f40 <register_tm_clones>:
  400f40:	be b0 54 60 00       	mov    $0x6054b0,%esi
  400f45:	55                   	push   %rbp
  400f46:	48 81 ee b0 54 60 00 	sub    $0x6054b0,%rsi
  400f4d:	48 c1 fe 03          	sar    $0x3,%rsi
  400f51:	48 89 e5             	mov    %rsp,%rbp
  400f54:	48 89 f0             	mov    %rsi,%rax
  400f57:	48 c1 e8 3f          	shr    $0x3f,%rax
  400f5b:	48 01 c6             	add    %rax,%rsi
  400f5e:	48 d1 fe             	sar    %rsi
  400f61:	74 15                	je     400f78 <register_tm_clones+0x38>
  400f63:	b8 00 00 00 00       	mov    $0x0,%eax
  400f68:	48 85 c0             	test   %rax,%rax
  400f6b:	74 0b                	je     400f78 <register_tm_clones+0x38>
  400f6d:	5d                   	pop    %rbp
  400f6e:	bf b0 54 60 00       	mov    $0x6054b0,%edi
  400f73:	ff e0                	jmpq   *%rax
  400f75:	0f 1f 00             	nopl   (%rax)
  400f78:	5d                   	pop    %rbp
  400f79:	c3                   	retq   
  400f7a:	66 0f 1f 44 00 00    	nopw   0x0(%rax,%rax,1)

0000000000400f80 <__do_global_dtors_aux>:
  400f80:	80 3d 61 45 20 00 00 	cmpb   $0x0,0x204561(%rip)        # 6054e8 <completed.7585>
  400f87:	75 11                	jne    400f9a <__do_global_dtors_aux+0x1a>
  400f89:	55                   	push   %rbp
  400f8a:	48 89 e5             	mov    %rsp,%rbp
  400f8d:	e8 6e ff ff ff       	callq  400f00 <deregister_tm_clones>
  400f92:	5d                   	pop    %rbp
  400f93:	c6 05 4e 45 20 00 01 	movb   $0x1,0x20454e(%rip)        # 6054e8 <completed.7585>
  400f9a:	f3 c3                	repz retq 
  400f9c:	0f 1f 40 00          	nopl   0x0(%rax)

0000000000400fa0 <frame_dummy>:
  400fa0:	bf 10 4e 60 00       	mov    $0x604e10,%edi
  400fa5:	48 83 3f 00          	cmpq   $0x0,(%rdi)
  400fa9:	75 05                	jne    400fb0 <frame_dummy+0x10>
  400fab:	eb 93                	jmp    400f40 <register_tm_clones>
  400fad:	0f 1f 00             	nopl   (%rax)
  400fb0:	b8 00 00 00 00       	mov    $0x0,%eax
  400fb5:	48 85 c0             	test   %rax,%rax
  400fb8:	74 f1                	je     400fab <frame_dummy+0xb>
  400fba:	55                   	push   %rbp
  400fbb:	48 89 e5             	mov    %rsp,%rbp
  400fbe:	ff d0                	callq  *%rax
  400fc0:	5d                   	pop    %rbp
  400fc1:	e9 7a ff ff ff       	jmpq   400f40 <register_tm_clones>

0000000000400fc6 <usage>:
  400fc6:	48 83 ec 08          	sub    $0x8,%rsp
  400fca:	48 89 fa             	mov    %rdi,%rdx
  400fcd:	83 3d 54 45 20 00 00 	cmpl   $0x0,0x204554(%rip)        # 605528 <is_checker>
  400fd4:	74 3e                	je     401014 <usage+0x4e>
  400fd6:	be 98 2e 40 00       	mov    $0x402e98,%esi
  400fdb:	bf 01 00 00 00       	mov    $0x1,%edi
  400fe0:	b8 00 00 00 00       	mov    $0x0,%eax
  400fe5:	e8 36 fe ff ff       	callq  400e20 <__printf_chk@plt>
  400fea:	bf d0 2e 40 00       	mov    $0x402ed0,%edi
  400fef:	e8 fc fc ff ff       	callq  400cf0 <puts@plt>
  400ff4:	bf 48 30 40 00       	mov    $0x403048,%edi
  400ff9:	e8 f2 fc ff ff       	callq  400cf0 <puts@plt>
  400ffe:	bf f8 2e 40 00       	mov    $0x402ef8,%edi
  401003:	e8 e8 fc ff ff       	callq  400cf0 <puts@plt>
  401008:	bf 62 30 40 00       	mov    $0x403062,%edi
  40100d:	e8 de fc ff ff       	callq  400cf0 <puts@plt>
  401012:	eb 32                	jmp    401046 <usage+0x80>
  401014:	be 7e 30 40 00       	mov    $0x40307e,%esi
  401019:	bf 01 00 00 00       	mov    $0x1,%edi
  40101e:	b8 00 00 00 00       	mov    $0x0,%eax
  401023:	e8 f8 fd ff ff       	callq  400e20 <__printf_chk@plt>
  401028:	bf 20 2f 40 00       	mov    $0x402f20,%edi
  40102d:	e8 be fc ff ff       	callq  400cf0 <puts@plt>
  401032:	bf 48 2f 40 00       	mov    $0x402f48,%edi
  401037:	e8 b4 fc ff ff       	callq  400cf0 <puts@plt>
  40103c:	bf 9c 30 40 00       	mov    $0x40309c,%edi
  401041:	e8 aa fc ff ff       	callq  400cf0 <puts@plt>
  401046:	bf 00 00 00 00       	mov    $0x0,%edi
  40104b:	e8 20 fe ff ff       	callq  400e70 <exit@plt>

0000000000401050 <initialize_target>:
  401050:	55                   	push   %rbp
  401051:	53                   	push   %rbx
  401052:	48 81 ec 18 21 00 00 	sub    $0x2118,%rsp
  401059:	89 f5                	mov    %esi,%ebp
  40105b:	64 48 8b 04 25 28 00 	mov    %fs:0x28,%rax
  401062:	00 00 
  401064:	48 89 84 24 08 21 00 	mov    %rax,0x2108(%rsp)
  40106b:	00 
  40106c:	31 c0                	xor    %eax,%eax
  40106e:	89 3d a4 44 20 00    	mov    %edi,0x2044a4(%rip)        # 605518 <check_level>
  401074:	8b 3d ee 40 20 00    	mov    0x2040ee(%rip),%edi        # 605168 <target_id>
  40107a:	e8 6b 1d 00 00       	callq  402dea <gencookie>
  40107f:	89 05 9f 44 20 00    	mov    %eax,0x20449f(%rip)        # 605524 <cookie>
  401085:	89 c7                	mov    %eax,%edi
  401087:	e8 5e 1d 00 00       	callq  402dea <gencookie>
  40108c:	89 05 8e 44 20 00    	mov    %eax,0x20448e(%rip)        # 605520 <authkey>
  401092:	8b 05 d0 40 20 00    	mov    0x2040d0(%rip),%eax        # 605168 <target_id>
  401098:	8d 78 01             	lea    0x1(%rax),%edi
  40109b:	e8 20 fc ff ff       	callq  400cc0 <srandom@plt>
  4010a0:	e8 3b fd ff ff       	callq  400de0 <random@plt>
  4010a5:	89 c7                	mov    %eax,%edi
  4010a7:	e8 03 03 00 00       	callq  4013af <scramble>
  4010ac:	89 c3                	mov    %eax,%ebx
  4010ae:	85 ed                	test   %ebp,%ebp
  4010b0:	74 18                	je     4010ca <initialize_target+0x7a>
  4010b2:	bf 00 00 00 00       	mov    $0x0,%edi
  4010b7:	e8 14 fd ff ff       	callq  400dd0 <time@plt>
  4010bc:	89 c7                	mov    %eax,%edi
  4010be:	e8 fd fb ff ff       	callq  400cc0 <srandom@plt>
  4010c3:	e8 18 fd ff ff       	callq  400de0 <random@plt>
  4010c8:	eb 05                	jmp    4010cf <initialize_target+0x7f>
  4010ca:	b8 00 00 00 00       	mov    $0x0,%eax
  4010cf:	01 c3                	add    %eax,%ebx
  4010d1:	0f b7 db             	movzwl %bx,%ebx
  4010d4:	8d 04 dd 00 01 00 00 	lea    0x100(,%rbx,8),%eax
  4010db:	89 c0                	mov    %eax,%eax
  4010dd:	48 89 05 bc 43 20 00 	mov    %rax,0x2043bc(%rip)        # 6054a0 <buf_offset>
  4010e4:	c6 05 5d 50 20 00 63 	movb   $0x63,0x20505d(%rip)        # 606148 <target_prefix>
  4010eb:	83 3d b6 43 20 00 00 	cmpl   $0x0,0x2043b6(%rip)        # 6054a8 <notify>
  4010f2:	0f 84 bb 00 00 00    	je     4011b3 <initialize_target+0x163>
  4010f8:	83 3d 29 44 20 00 00 	cmpl   $0x0,0x204429(%rip)        # 605528 <is_checker>
  4010ff:	0f 85 ae 00 00 00    	jne    4011b3 <initialize_target+0x163>
  401105:	be 00 01 00 00       	mov    $0x100,%esi
  40110a:	48 89 e7             	mov    %rsp,%rdi
  40110d:	e8 4e fd ff ff       	callq  400e60 <gethostname@plt>
  401112:	85 c0                	test   %eax,%eax
  401114:	74 25                	je     40113b <initialize_target+0xeb>
  401116:	bf 78 2f 40 00       	mov    $0x402f78,%edi
  40111b:	e8 d0 fb ff ff       	callq  400cf0 <puts@plt>
  401120:	bf 08 00 00 00       	mov    $0x8,%edi
  401125:	e8 46 fd ff ff       	callq  400e70 <exit@plt>
  40112a:	48 89 e6             	mov    %rsp,%rsi
  40112d:	e8 6e fb ff ff       	callq  400ca0 <strcasecmp@plt>
  401132:	85 c0                	test   %eax,%eax
  401134:	74 21                	je     401157 <initialize_target+0x107>
  401136:	83 c3 01             	add    $0x1,%ebx
  401139:	eb 05                	jmp    401140 <initialize_target+0xf0>
  40113b:	bb 00 00 00 00       	mov    $0x0,%ebx
  401140:	48 63 c3             	movslq %ebx,%rax
  401143:	48 8b 3c c5 80 51 60 	mov    0x605180(,%rax,8),%rdi
  40114a:	00 
  40114b:	48 85 ff             	test   %rdi,%rdi
  40114e:	75 da                	jne    40112a <initialize_target+0xda>
  401150:	b8 00 00 00 00       	mov    $0x0,%eax
  401155:	eb 05                	jmp    40115c <initialize_target+0x10c>
  401157:	b8 01 00 00 00       	mov    $0x1,%eax
  40115c:	85 c0                	test   %eax,%eax
  40115e:	75 1c                	jne    40117c <initialize_target+0x12c>
  401160:	48 89 e2             	mov    %rsp,%rdx
  401163:	be b0 2f 40 00       	mov    $0x402fb0,%esi
  401168:	bf 01 00 00 00       	mov    $0x1,%edi
  40116d:	e8 ae fc ff ff       	callq  400e20 <__printf_chk@plt>
  401172:	bf 08 00 00 00       	mov    $0x8,%edi
  401177:	e8 f4 fc ff ff       	callq  400e70 <exit@plt>
  40117c:	48 8d bc 24 00 01 00 	lea    0x100(%rsp),%rdi
  401183:	00 
  401184:	e8 cb 19 00 00       	callq  402b54 <init_driver>
  401189:	85 c0                	test   %eax,%eax
  40118b:	79 26                	jns    4011b3 <initialize_target+0x163>
  40118d:	48 8d 94 24 00 01 00 	lea    0x100(%rsp),%rdx
  401194:	00 
  401195:	be f0 2f 40 00       	mov    $0x402ff0,%esi
  40119a:	bf 01 00 00 00       	mov    $0x1,%edi
  40119f:	b8 00 00 00 00       	mov    $0x0,%eax
  4011a4:	e8 77 fc ff ff       	callq  400e20 <__printf_chk@plt>
  4011a9:	bf 08 00 00 00       	mov    $0x8,%edi
  4011ae:	e8 bd fc ff ff       	callq  400e70 <exit@plt>
  4011b3:	48 8b 84 24 08 21 00 	mov    0x2108(%rsp),%rax
  4011ba:	00 
  4011bb:	64 48 33 04 25 28 00 	xor    %fs:0x28,%rax
  4011c2:	00 00 
  4011c4:	74 05                	je     4011cb <initialize_target+0x17b>
  4011c6:	e8 45 fb ff ff       	callq  400d10 <__stack_chk_fail@plt>
  4011cb:	48 81 c4 18 21 00 00 	add    $0x2118,%rsp
  4011d2:	5b                   	pop    %rbx
  4011d3:	5d                   	pop    %rbp
  4011d4:	c3                   	retq   

00000000004011d5 <main>:
  4011d5:	41 56                	push   %r14
  4011d7:	41 55                	push   %r13
  4011d9:	41 54                	push   %r12
  4011db:	55                   	push   %rbp
  4011dc:	53                   	push   %rbx
  4011dd:	41 89 fc             	mov    %edi,%r12d
  4011e0:	48 89 f3             	mov    %rsi,%rbx
  4011e3:	be 74 1e 40 00       	mov    $0x401e74,%esi
  4011e8:	bf 0b 00 00 00       	mov    $0xb,%edi
  4011ed:	e8 8e fb ff ff       	callq  400d80 <signal@plt>
  4011f2:	be 26 1e 40 00       	mov    $0x401e26,%esi
  4011f7:	bf 07 00 00 00       	mov    $0x7,%edi
  4011fc:	e8 7f fb ff ff       	callq  400d80 <signal@plt>
  401201:	be c2 1e 40 00       	mov    $0x401ec2,%esi
  401206:	bf 04 00 00 00       	mov    $0x4,%edi
  40120b:	e8 70 fb ff ff       	callq  400d80 <signal@plt>
  401210:	83 3d 11 43 20 00 00 	cmpl   $0x0,0x204311(%rip)        # 605528 <is_checker>
  401217:	74 20                	je     401239 <main+0x64>
  401219:	be 10 1f 40 00       	mov    $0x401f10,%esi
  40121e:	bf 0e 00 00 00       	mov    $0xe,%edi
  401223:	e8 58 fb ff ff       	callq  400d80 <signal@plt>
  401228:	bf 05 00 00 00       	mov    $0x5,%edi
  40122d:	e8 0e fb ff ff       	callq  400d40 <alarm@plt>
  401232:	bd ba 30 40 00       	mov    $0x4030ba,%ebp
  401237:	eb 05                	jmp    40123e <main+0x69>
  401239:	bd b5 30 40 00       	mov    $0x4030b5,%ebp
  40123e:	48 8b 05 7b 42 20 00 	mov    0x20427b(%rip),%rax        # 6054c0 <stdin@@GLIBC_2.2.5>
  401245:	48 89 05 c4 42 20 00 	mov    %rax,0x2042c4(%rip)        # 605510 <infile>
  40124c:	41 bd 00 00 00 00    	mov    $0x0,%r13d
  401252:	41 be 00 00 00 00    	mov    $0x0,%r14d
  401258:	e9 c6 00 00 00       	jmpq   401323 <main+0x14e>
  40125d:	83 e8 61             	sub    $0x61,%eax
  401260:	3c 10                	cmp    $0x10,%al
  401262:	0f 87 9c 00 00 00    	ja     401304 <main+0x12f>
  401268:	0f b6 c0             	movzbl %al,%eax
  40126b:	ff 24 c5 00 31 40 00 	jmpq   *0x403100(,%rax,8)
  401272:	48 8b 3b             	mov    (%rbx),%rdi
  401275:	e8 4c fd ff ff       	callq  400fc6 <usage>
  40127a:	be 0d 34 40 00       	mov    $0x40340d,%esi
  40127f:	48 8b 3d 42 42 20 00 	mov    0x204242(%rip),%rdi        # 6054c8 <optarg@@GLIBC_2.2.5>
  401286:	e8 a5 fb ff ff       	callq  400e30 <fopen@plt>
  40128b:	48 89 05 7e 42 20 00 	mov    %rax,0x20427e(%rip)        # 605510 <infile>
  401292:	48 85 c0             	test   %rax,%rax
  401295:	0f 85 88 00 00 00    	jne    401323 <main+0x14e>
  40129b:	48 8b 0d 26 42 20 00 	mov    0x204226(%rip),%rcx        # 6054c8 <optarg@@GLIBC_2.2.5>
  4012a2:	ba c2 30 40 00       	mov    $0x4030c2,%edx
  4012a7:	be 01 00 00 00       	mov    $0x1,%esi
  4012ac:	48 8b 3d 2d 42 20 00 	mov    0x20422d(%rip),%rdi        # 6054e0 <stderr@@GLIBC_2.2.5>
  4012b3:	e8 d8 fb ff ff       	callq  400e90 <__fprintf_chk@plt>
  4012b8:	b8 01 00 00 00       	mov    $0x1,%eax
  4012bd:	e9 e4 00 00 00       	jmpq   4013a6 <main+0x1d1>
  4012c2:	ba 10 00 00 00       	mov    $0x10,%edx
  4012c7:	be 00 00 00 00       	mov    $0x0,%esi
  4012cc:	48 8b 3d f5 41 20 00 	mov    0x2041f5(%rip),%rdi        # 6054c8 <optarg@@GLIBC_2.2.5>
  4012d3:	e8 78 fb ff ff       	callq  400e50 <strtoul@plt>
  4012d8:	41 89 c6             	mov    %eax,%r14d
  4012db:	eb 46                	jmp    401323 <main+0x14e>
  4012dd:	ba 0a 00 00 00       	mov    $0xa,%edx
  4012e2:	be 00 00 00 00       	mov    $0x0,%esi
  4012e7:	48 8b 3d da 41 20 00 	mov    0x2041da(%rip),%rdi        # 6054c8 <optarg@@GLIBC_2.2.5>
  4012ee:	e8 bd fa ff ff       	callq  400db0 <strtol@plt>
  4012f3:	41 89 c5             	mov    %eax,%r13d
  4012f6:	eb 2b                	jmp    401323 <main+0x14e>
  4012f8:	c7 05 a6 41 20 00 00 	movl   $0x0,0x2041a6(%rip)        # 6054a8 <notify>
  4012ff:	00 00 00 
  401302:	eb 1f                	jmp    401323 <main+0x14e>
  401304:	0f be d2             	movsbl %dl,%edx
  401307:	be df 30 40 00       	mov    $0x4030df,%esi
  40130c:	bf 01 00 00 00       	mov    $0x1,%edi
  401311:	b8 00 00 00 00       	mov    $0x0,%eax
  401316:	e8 05 fb ff ff       	callq  400e20 <__printf_chk@plt>
  40131b:	48 8b 3b             	mov    (%rbx),%rdi
  40131e:	e8 a3 fc ff ff       	callq  400fc6 <usage>
  401323:	48 89 ea             	mov    %rbp,%rdx
  401326:	48 89 de             	mov    %rbx,%rsi
  401329:	44 89 e7             	mov    %r12d,%edi
  40132c:	e8 0f fb ff ff       	callq  400e40 <getopt@plt>
  401331:	89 c2                	mov    %eax,%edx
  401333:	3c ff                	cmp    $0xff,%al
  401335:	0f 85 22 ff ff ff    	jne    40125d <main+0x88>
  40133b:	be 00 00 00 00       	mov    $0x0,%esi
  401340:	44 89 ef             	mov    %r13d,%edi
  401343:	e8 08 fd ff ff       	callq  401050 <initialize_target>
  401348:	83 3d d9 41 20 00 00 	cmpl   $0x0,0x2041d9(%rip)        # 605528 <is_checker>
  40134f:	74 2a                	je     40137b <main+0x1a6>
  401351:	44 3b 35 c8 41 20 00 	cmp    0x2041c8(%rip),%r14d        # 605520 <authkey>
  401358:	74 21                	je     40137b <main+0x1a6>
  40135a:	44 89 f2             	mov    %r14d,%edx
  40135d:	be 18 30 40 00       	mov    $0x403018,%esi
  401362:	bf 01 00 00 00       	mov    $0x1,%edi
  401367:	b8 00 00 00 00       	mov    $0x0,%eax
  40136c:	e8 af fa ff ff       	callq  400e20 <__printf_chk@plt>
  401371:	b8 00 00 00 00       	mov    $0x0,%eax
  401376:	e8 47 07 00 00       	callq  401ac2 <check_fail>
  40137b:	8b 15 a3 41 20 00    	mov    0x2041a3(%rip),%edx        # 605524 <cookie>
  401381:	be f2 30 40 00       	mov    $0x4030f2,%esi
  401386:	bf 01 00 00 00       	mov    $0x1,%edi
  40138b:	b8 00 00 00 00       	mov    $0x0,%eax
  401390:	e8 8b fa ff ff       	callq  400e20 <__printf_chk@plt>
  401395:	48 8b 3d 04 41 20 00 	mov    0x204104(%rip),%rdi        # 6054a0 <buf_offset>
  40139c:	e8 6f 0c 00 00       	callq  402010 <stable_launch>
  4013a1:	b8 00 00 00 00       	mov    $0x0,%eax
  4013a6:	5b                   	pop    %rbx
  4013a7:	5d                   	pop    %rbp
  4013a8:	41 5c                	pop    %r12
  4013aa:	41 5d                	pop    %r13
  4013ac:	41 5e                	pop    %r14
  4013ae:	c3                   	retq   

00000000004013af <scramble>:
  4013af:	48 83 ec 38          	sub    $0x38,%rsp
  4013b3:	64 48 8b 04 25 28 00 	mov    %fs:0x28,%rax
  4013ba:	00 00 
  4013bc:	48 89 44 24 28       	mov    %rax,0x28(%rsp)
  4013c1:	31 c0                	xor    %eax,%eax
  4013c3:	eb 10                	jmp    4013d5 <scramble+0x26>
  4013c5:	69 d0 4e ff 00 00    	imul   $0xff4e,%eax,%edx
  4013cb:	01 fa                	add    %edi,%edx
  4013cd:	89 c1                	mov    %eax,%ecx
  4013cf:	89 14 8c             	mov    %edx,(%rsp,%rcx,4)
  4013d2:	83 c0 01             	add    $0x1,%eax
  4013d5:	83 f8 09             	cmp    $0x9,%eax
  4013d8:	76 eb                	jbe    4013c5 <scramble+0x16>
  4013da:	8b 44 24 08          	mov    0x8(%rsp),%eax
  4013de:	69 c0 2f 20 00 00    	imul   $0x202f,%eax,%eax
  4013e4:	89 44 24 08          	mov    %eax,0x8(%rsp)
  4013e8:	8b 44 24 24          	mov    0x24(%rsp),%eax
  4013ec:	69 c0 b0 a7 00 00    	imul   $0xa7b0,%eax,%eax
  4013f2:	89 44 24 24          	mov    %eax,0x24(%rsp)
  4013f6:	8b 44 24 0c          	mov    0xc(%rsp),%eax
  4013fa:	69 c0 e9 54 00 00    	imul   $0x54e9,%eax,%eax
  401400:	89 44 24 0c          	mov    %eax,0xc(%rsp)
  401404:	8b 44 24 18          	mov    0x18(%rsp),%eax
  401408:	69 c0 75 cc 00 00    	imul   $0xcc75,%eax,%eax
  40140e:	89 44 24 18          	mov    %eax,0x18(%rsp)
  401412:	8b 44 24 20          	mov    0x20(%rsp),%eax
  401416:	69 c0 15 1b 00 00    	imul   $0x1b15,%eax,%eax
  40141c:	89 44 24 20          	mov    %eax,0x20(%rsp)
  401420:	8b 44 24 20          	mov    0x20(%rsp),%eax
  401424:	69 c0 7a bc 00 00    	imul   $0xbc7a,%eax,%eax
  40142a:	89 44 24 20          	mov    %eax,0x20(%rsp)
  40142e:	8b 04 24             	mov    (%rsp),%eax
  401431:	69 c0 67 fd 00 00    	imul   $0xfd67,%eax,%eax
  401437:	89 04 24             	mov    %eax,(%rsp)
  40143a:	8b 44 24 14          	mov    0x14(%rsp),%eax
  40143e:	69 c0 ad c9 00 00    	imul   $0xc9ad,%eax,%eax
  401444:	89 44 24 14          	mov    %eax,0x14(%rsp)
  401448:	8b 04 24             	mov    (%rsp),%eax
  40144b:	69 c0 db 93 00 00    	imul   $0x93db,%eax,%eax
  401451:	89 04 24             	mov    %eax,(%rsp)
  401454:	8b 44 24 04          	mov    0x4(%rsp),%eax
  401458:	69 c0 1f 1c 00 00    	imul   $0x1c1f,%eax,%eax
  40145e:	89 44 24 04          	mov    %eax,0x4(%rsp)
  401462:	8b 44 24 10          	mov    0x10(%rsp),%eax
  401466:	69 c0 1a 77 00 00    	imul   $0x771a,%eax,%eax
  40146c:	89 44 24 10          	mov    %eax,0x10(%rsp)
  401470:	8b 44 24 18          	mov    0x18(%rsp),%eax
  401474:	69 c0 4d 31 00 00    	imul   $0x314d,%eax,%eax
  40147a:	89 44 24 18          	mov    %eax,0x18(%rsp)
  40147e:	8b 44 24 10          	mov    0x10(%rsp),%eax
  401482:	69 c0 34 b3 00 00    	imul   $0xb334,%eax,%eax
  401488:	89 44 24 10          	mov    %eax,0x10(%rsp)
  40148c:	8b 44 24 08          	mov    0x8(%rsp),%eax
  401490:	69 c0 34 c6 00 00    	imul   $0xc634,%eax,%eax
  401496:	89 44 24 08          	mov    %eax,0x8(%rsp)
  40149a:	8b 44 24 08          	mov    0x8(%rsp),%eax
  40149e:	69 c0 7c 38 00 00    	imul   $0x387c,%eax,%eax
  4014a4:	89 44 24 08          	mov    %eax,0x8(%rsp)
  4014a8:	8b 44 24 18          	mov    0x18(%rsp),%eax
  4014ac:	69 c0 fa 24 00 00    	imul   $0x24fa,%eax,%eax
  4014b2:	89 44 24 18          	mov    %eax,0x18(%rsp)
  4014b6:	8b 44 24 10          	mov    0x10(%rsp),%eax
  4014ba:	69 c0 8d a1 00 00    	imul   $0xa18d,%eax,%eax
  4014c0:	89 44 24 10          	mov    %eax,0x10(%rsp)
  4014c4:	8b 44 24 10          	mov    0x10(%rsp),%eax
  4014c8:	69 c0 cb 89 00 00    	imul   $0x89cb,%eax,%eax
  4014ce:	89 44 24 10          	mov    %eax,0x10(%rsp)
  4014d2:	8b 44 24 08          	mov    0x8(%rsp),%eax
  4014d6:	69 c0 fb f0 00 00    	imul   $0xf0fb,%eax,%eax
  4014dc:	89 44 24 08          	mov    %eax,0x8(%rsp)
  4014e0:	8b 44 24 20          	mov    0x20(%rsp),%eax
  4014e4:	69 c0 4e f7 00 00    	imul   $0xf74e,%eax,%eax
  4014ea:	89 44 24 20          	mov    %eax,0x20(%rsp)
  4014ee:	8b 44 24 18          	mov    0x18(%rsp),%eax
  4014f2:	69 c0 3b 37 00 00    	imul   $0x373b,%eax,%eax
  4014f8:	89 44 24 18          	mov    %eax,0x18(%rsp)
  4014fc:	8b 44 24 18          	mov    0x18(%rsp),%eax
  401500:	69 c0 9d a8 00 00    	imul   $0xa89d,%eax,%eax
  401506:	89 44 24 18          	mov    %eax,0x18(%rsp)
  40150a:	8b 44 24 20          	mov    0x20(%rsp),%eax
  40150e:	69 c0 34 0d 00 00    	imul   $0xd34,%eax,%eax
  401514:	89 44 24 20          	mov    %eax,0x20(%rsp)
  401518:	8b 44 24 18          	mov    0x18(%rsp),%eax
  40151c:	69 c0 49 19 00 00    	imul   $0x1949,%eax,%eax
  401522:	89 44 24 18          	mov    %eax,0x18(%rsp)
  401526:	8b 44 24 08          	mov    0x8(%rsp),%eax
  40152a:	69 c0 fc 76 00 00    	imul   $0x76fc,%eax,%eax
  401530:	89 44 24 08          	mov    %eax,0x8(%rsp)
  401534:	8b 04 24             	mov    (%rsp),%eax
  401537:	69 c0 f7 19 00 00    	imul   $0x19f7,%eax,%eax
  40153d:	89 04 24             	mov    %eax,(%rsp)
  401540:	8b 44 24 10          	mov    0x10(%rsp),%eax
  401544:	69 c0 64 94 00 00    	imul   $0x9464,%eax,%eax
  40154a:	89 44 24 10          	mov    %eax,0x10(%rsp)
  40154e:	8b 44 24 24          	mov    0x24(%rsp),%eax
  401552:	69 c0 75 fd 00 00    	imul   $0xfd75,%eax,%eax
  401558:	89 44 24 24          	mov    %eax,0x24(%rsp)
  40155c:	8b 44 24 04          	mov    0x4(%rsp),%eax
  401560:	69 c0 20 9f 00 00    	imul   $0x9f20,%eax,%eax
  401566:	89 44 24 04          	mov    %eax,0x4(%rsp)
  40156a:	8b 44 24 08          	mov    0x8(%rsp),%eax
  40156e:	69 c0 45 6d 00 00    	imul   $0x6d45,%eax,%eax
  401574:	89 44 24 08          	mov    %eax,0x8(%rsp)
  401578:	8b 44 24 0c          	mov    0xc(%rsp),%eax
  40157c:	69 c0 d9 33 00 00    	imul   $0x33d9,%eax,%eax
  401582:	89 44 24 0c          	mov    %eax,0xc(%rsp)
  401586:	8b 44 24 08          	mov    0x8(%rsp),%eax
  40158a:	69 c0 48 30 00 00    	imul   $0x3048,%eax,%eax
  401590:	89 44 24 08          	mov    %eax,0x8(%rsp)
  401594:	8b 44 24 18          	mov    0x18(%rsp),%eax
  401598:	69 c0 e9 5e 00 00    	imul   $0x5ee9,%eax,%eax
  40159e:	89 44 24 18          	mov    %eax,0x18(%rsp)
  4015a2:	8b 44 24 20          	mov    0x20(%rsp),%eax
  4015a6:	69 c0 dd cb 00 00    	imul   $0xcbdd,%eax,%eax
  4015ac:	89 44 24 20          	mov    %eax,0x20(%rsp)
  4015b0:	8b 44 24 04          	mov    0x4(%rsp),%eax
  4015b4:	69 c0 54 10 00 00    	imul   $0x1054,%eax,%eax
  4015ba:	89 44 24 04          	mov    %eax,0x4(%rsp)
  4015be:	8b 44 24 14          	mov    0x14(%rsp),%eax
  4015c2:	69 c0 f5 5b 00 00    	imul   $0x5bf5,%eax,%eax
  4015c8:	89 44 24 14          	mov    %eax,0x14(%rsp)
  4015cc:	8b 44 24 18          	mov    0x18(%rsp),%eax
  4015d0:	69 c0 f4 76 00 00    	imul   $0x76f4,%eax,%eax
  4015d6:	89 44 24 18          	mov    %eax,0x18(%rsp)
  4015da:	8b 44 24 20          	mov    0x20(%rsp),%eax
  4015de:	69 c0 31 7c 00 00    	imul   $0x7c31,%eax,%eax
  4015e4:	89 44 24 20          	mov    %eax,0x20(%rsp)
  4015e8:	8b 44 24 18          	mov    0x18(%rsp),%eax
  4015ec:	69 c0 dc 76 00 00    	imul   $0x76dc,%eax,%eax
  4015f2:	89 44 24 18          	mov    %eax,0x18(%rsp)
  4015f6:	8b 44 24 18          	mov    0x18(%rsp),%eax
  4015fa:	69 c0 38 25 00 00    	imul   $0x2538,%eax,%eax
  401600:	89 44 24 18          	mov    %eax,0x18(%rsp)
  401604:	8b 44 24 14          	mov    0x14(%rsp),%eax
  401608:	69 c0 e2 ca 00 00    	imul   $0xcae2,%eax,%eax
  40160e:	89 44 24 14          	mov    %eax,0x14(%rsp)
  401612:	8b 44 24 04          	mov    0x4(%rsp),%eax
  401616:	69 c0 ef db 00 00    	imul   $0xdbef,%eax,%eax
  40161c:	89 44 24 04          	mov    %eax,0x4(%rsp)
  401620:	8b 44 24 20          	mov    0x20(%rsp),%eax
  401624:	69 c0 73 8a 00 00    	imul   $0x8a73,%eax,%eax
  40162a:	89 44 24 20          	mov    %eax,0x20(%rsp)
  40162e:	8b 44 24 24          	mov    0x24(%rsp),%eax
  401632:	69 c0 e0 a6 00 00    	imul   $0xa6e0,%eax,%eax
  401638:	89 44 24 24          	mov    %eax,0x24(%rsp)
  40163c:	8b 44 24 0c          	mov    0xc(%rsp),%eax
  401640:	69 c0 0d 9d 00 00    	imul   $0x9d0d,%eax,%eax
  401646:	89 44 24 0c          	mov    %eax,0xc(%rsp)
  40164a:	8b 44 24 18          	mov    0x18(%rsp),%eax
  40164e:	69 c0 30 01 00 00    	imul   $0x130,%eax,%eax
  401654:	89 44 24 18          	mov    %eax,0x18(%rsp)
  401658:	8b 44 24 10          	mov    0x10(%rsp),%eax
  40165c:	69 c0 64 a6 00 00    	imul   $0xa664,%eax,%eax
  401662:	89 44 24 10          	mov    %eax,0x10(%rsp)
  401666:	8b 44 24 24          	mov    0x24(%rsp),%eax
  40166a:	69 c0 4d a6 00 00    	imul   $0xa64d,%eax,%eax
  401670:	89 44 24 24          	mov    %eax,0x24(%rsp)
  401674:	8b 04 24             	mov    (%rsp),%eax
  401677:	69 c0 8c eb 00 00    	imul   $0xeb8c,%eax,%eax
  40167d:	89 04 24             	mov    %eax,(%rsp)
  401680:	8b 44 24 14          	mov    0x14(%rsp),%eax
  401684:	69 c0 31 55 00 00    	imul   $0x5531,%eax,%eax
  40168a:	89 44 24 14          	mov    %eax,0x14(%rsp)
  40168e:	8b 44 24 20          	mov    0x20(%rsp),%eax
  401692:	69 c0 55 35 00 00    	imul   $0x3555,%eax,%eax
  401698:	89 44 24 20          	mov    %eax,0x20(%rsp)
  40169c:	8b 44 24 04          	mov    0x4(%rsp),%eax
  4016a0:	69 c0 70 43 00 00    	imul   $0x4370,%eax,%eax
  4016a6:	89 44 24 04          	mov    %eax,0x4(%rsp)
  4016aa:	8b 44 24 18          	mov    0x18(%rsp),%eax
  4016ae:	69 c0 b8 b5 00 00    	imul   $0xb5b8,%eax,%eax
  4016b4:	89 44 24 18          	mov    %eax,0x18(%rsp)
  4016b8:	8b 44 24 08          	mov    0x8(%rsp),%eax
  4016bc:	69 c0 72 30 00 00    	imul   $0x3072,%eax,%eax
  4016c2:	89 44 24 08          	mov    %eax,0x8(%rsp)
  4016c6:	8b 44 24 20          	mov    0x20(%rsp),%eax
  4016ca:	69 c0 1c 55 00 00    	imul   $0x551c,%eax,%eax
  4016d0:	89 44 24 20          	mov    %eax,0x20(%rsp)
  4016d4:	8b 44 24 14          	mov    0x14(%rsp),%eax
  4016d8:	69 c0 6d 1a 00 00    	imul   $0x1a6d,%eax,%eax
  4016de:	89 44 24 14          	mov    %eax,0x14(%rsp)
  4016e2:	8b 04 24             	mov    (%rsp),%eax
  4016e5:	69 c0 da 94 00 00    	imul   $0x94da,%eax,%eax
  4016eb:	89 04 24             	mov    %eax,(%rsp)
  4016ee:	8b 44 24 14          	mov    0x14(%rsp),%eax
  4016f2:	69 c0 46 7f 00 00    	imul   $0x7f46,%eax,%eax
  4016f8:	89 44 24 14          	mov    %eax,0x14(%rsp)
  4016fc:	8b 44 24 20          	mov    0x20(%rsp),%eax
  401700:	69 c0 c0 cf 00 00    	imul   $0xcfc0,%eax,%eax
  401706:	89 44 24 20          	mov    %eax,0x20(%rsp)
  40170a:	8b 44 24 24          	mov    0x24(%rsp),%eax
  40170e:	69 c0 e1 48 00 00    	imul   $0x48e1,%eax,%eax
  401714:	89 44 24 24          	mov    %eax,0x24(%rsp)
  401718:	8b 44 24 24          	mov    0x24(%rsp),%eax
  40171c:	69 c0 4b 3a 00 00    	imul   $0x3a4b,%eax,%eax
  401722:	89 44 24 24          	mov    %eax,0x24(%rsp)
  401726:	8b 44 24 04          	mov    0x4(%rsp),%eax
  40172a:	69 c0 b3 3d 00 00    	imul   $0x3db3,%eax,%eax
  401730:	89 44 24 04          	mov    %eax,0x4(%rsp)
  401734:	8b 44 24 18          	mov    0x18(%rsp),%eax
  401738:	69 c0 89 7b 00 00    	imul   $0x7b89,%eax,%eax
  40173e:	89 44 24 18          	mov    %eax,0x18(%rsp)
  401742:	8b 44 24 20          	mov    0x20(%rsp),%eax
  401746:	69 c0 fc e5 00 00    	imul   $0xe5fc,%eax,%eax
  40174c:	89 44 24 20          	mov    %eax,0x20(%rsp)
  401750:	8b 44 24 04          	mov    0x4(%rsp),%eax
  401754:	69 c0 2a 56 00 00    	imul   $0x562a,%eax,%eax
  40175a:	89 44 24 04          	mov    %eax,0x4(%rsp)
  40175e:	8b 44 24 20          	mov    0x20(%rsp),%eax
  401762:	69 c0 f7 62 00 00    	imul   $0x62f7,%eax,%eax
  401768:	89 44 24 20          	mov    %eax,0x20(%rsp)
  40176c:	8b 44 24 14          	mov    0x14(%rsp),%eax
  401770:	69 c0 54 ec 00 00    	imul   $0xec54,%eax,%eax
  401776:	89 44 24 14          	mov    %eax,0x14(%rsp)
  40177a:	8b 44 24 20          	mov    0x20(%rsp),%eax
  40177e:	69 c0 c9 37 00 00    	imul   $0x37c9,%eax,%eax
  401784:	89 44 24 20          	mov    %eax,0x20(%rsp)
  401788:	8b 44 24 0c          	mov    0xc(%rsp),%eax
  40178c:	69 c0 09 66 00 00    	imul   $0x6609,%eax,%eax
  401792:	89 44 24 0c          	mov    %eax,0xc(%rsp)
  401796:	8b 44 24 18          	mov    0x18(%rsp),%eax
  40179a:	69 c0 a1 ce 00 00    	imul   $0xcea1,%eax,%eax
  4017a0:	89 44 24 18          	mov    %eax,0x18(%rsp)
  4017a4:	8b 44 24 10          	mov    0x10(%rsp),%eax
  4017a8:	69 c0 e6 bd 00 00    	imul   $0xbde6,%eax,%eax
  4017ae:	89 44 24 10          	mov    %eax,0x10(%rsp)
  4017b2:	8b 44 24 20          	mov    0x20(%rsp),%eax
  4017b6:	69 c0 25 db 00 00    	imul   $0xdb25,%eax,%eax
  4017bc:	89 44 24 20          	mov    %eax,0x20(%rsp)
  4017c0:	8b 44 24 1c          	mov    0x1c(%rsp),%eax
  4017c4:	69 c0 6a df 00 00    	imul   $0xdf6a,%eax,%eax
  4017ca:	89 44 24 1c          	mov    %eax,0x1c(%rsp)
  4017ce:	8b 44 24 18          	mov    0x18(%rsp),%eax
  4017d2:	69 c0 0d 72 00 00    	imul   $0x720d,%eax,%eax
  4017d8:	89 44 24 18          	mov    %eax,0x18(%rsp)
  4017dc:	8b 04 24             	mov    (%rsp),%eax
  4017df:	69 c0 91 80 00 00    	imul   $0x8091,%eax,%eax
  4017e5:	89 04 24             	mov    %eax,(%rsp)
  4017e8:	8b 04 24             	mov    (%rsp),%eax
  4017eb:	69 c0 f7 1b 00 00    	imul   $0x1bf7,%eax,%eax
  4017f1:	89 04 24             	mov    %eax,(%rsp)
  4017f4:	8b 44 24 08          	mov    0x8(%rsp),%eax
  4017f8:	69 c0 ff 04 00 00    	imul   $0x4ff,%eax,%eax
  4017fe:	89 44 24 08          	mov    %eax,0x8(%rsp)
  401802:	8b 44 24 24          	mov    0x24(%rsp),%eax
  401806:	69 c0 8b 9b 00 00    	imul   $0x9b8b,%eax,%eax
  40180c:	89 44 24 24          	mov    %eax,0x24(%rsp)
  401810:	8b 44 24 14          	mov    0x14(%rsp),%eax
  401814:	69 c0 ab 3d 00 00    	imul   $0x3dab,%eax,%eax
  40181a:	89 44 24 14          	mov    %eax,0x14(%rsp)
  40181e:	8b 44 24 1c          	mov    0x1c(%rsp),%eax
  401822:	69 c0 9f e7 00 00    	imul   $0xe79f,%eax,%eax
  401828:	89 44 24 1c          	mov    %eax,0x1c(%rsp)
  40182c:	8b 04 24             	mov    (%rsp),%eax
  40182f:	69 c0 b4 bc 00 00    	imul   $0xbcb4,%eax,%eax
  401835:	89 04 24             	mov    %eax,(%rsp)
  401838:	ba 00 00 00 00       	mov    $0x0,%edx
  40183d:	b8 00 00 00 00       	mov    $0x0,%eax
  401842:	eb 0a                	jmp    40184e <scramble+0x49f>
  401844:	89 d1                	mov    %edx,%ecx
  401846:	8b 0c 8c             	mov    (%rsp,%rcx,4),%ecx
  401849:	01 c8                	add    %ecx,%eax
  40184b:	83 c2 01             	add    $0x1,%edx
  40184e:	83 fa 09             	cmp    $0x9,%edx
  401851:	76 f1                	jbe    401844 <scramble+0x495>
  401853:	48 8b 74 24 28       	mov    0x28(%rsp),%rsi
  401858:	64 48 33 34 25 28 00 	xor    %fs:0x28,%rsi
  40185f:	00 00 
  401861:	74 05                	je     401868 <scramble+0x4b9>
  401863:	e8 a8 f4 ff ff       	callq  400d10 <__stack_chk_fail@plt>
  401868:	48 83 c4 38          	add    $0x38,%rsp
  40186c:	c3                   	retq   

000000000040186d <getbuf>:
  40186d:	48 83 ec 18          	sub    $0x18,%rsp
  401871:	48 89 e7             	mov    %rsp,%rdi
  401874:	e8 7e 02 00 00       	callq  401af7 <Gets>
  401879:	b8 01 00 00 00       	mov    $0x1,%eax
  40187e:	48 83 c4 18          	add    $0x18,%rsp
  401882:	c3                   	retq   

0000000000401883 <touch1>:
  401883:	48 83 ec 08          	sub    $0x8,%rsp
  401887:	c7 05 8b 3c 20 00 01 	movl   $0x1,0x203c8b(%rip)        # 60551c <vlevel>
  40188e:	00 00 00 
  401891:	bf 66 32 40 00       	mov    $0x403266,%edi
  401896:	e8 55 f4 ff ff       	callq  400cf0 <puts@plt>
  40189b:	bf 01 00 00 00       	mov    $0x1,%edi
  4018a0:	e8 97 04 00 00       	callq  401d3c <validate>
  4018a5:	bf 00 00 00 00       	mov    $0x0,%edi
  4018aa:	e8 c1 f5 ff ff       	callq  400e70 <exit@plt>

00000000004018af <touch2>:
  4018af:	48 83 ec 08          	sub    $0x8,%rsp
  4018b3:	89 fa                	mov    %edi,%edx
  4018b5:	c7 05 5d 3c 20 00 02 	movl   $0x2,0x203c5d(%rip)        # 60551c <vlevel>
  4018bc:	00 00 00 
  4018bf:	39 3d 5f 3c 20 00    	cmp    %edi,0x203c5f(%rip)        # 605524 <cookie>
  4018c5:	75 20                	jne    4018e7 <touch2+0x38>
  4018c7:	be 88 32 40 00       	mov    $0x403288,%esi
  4018cc:	bf 01 00 00 00       	mov    $0x1,%edi
  4018d1:	b8 00 00 00 00       	mov    $0x0,%eax
  4018d6:	e8 45 f5 ff ff       	callq  400e20 <__printf_chk@plt>
  4018db:	bf 02 00 00 00       	mov    $0x2,%edi
  4018e0:	e8 57 04 00 00       	callq  401d3c <validate>
  4018e5:	eb 1e                	jmp    401905 <touch2+0x56>
  4018e7:	be b0 32 40 00       	mov    $0x4032b0,%esi
  4018ec:	bf 01 00 00 00       	mov    $0x1,%edi
  4018f1:	b8 00 00 00 00       	mov    $0x0,%eax
  4018f6:	e8 25 f5 ff ff       	callq  400e20 <__printf_chk@plt>
  4018fb:	bf 02 00 00 00       	mov    $0x2,%edi
  401900:	e8 f9 04 00 00       	callq  401dfe <fail>
  401905:	bf 00 00 00 00       	mov    $0x0,%edi
  40190a:	e8 61 f5 ff ff       	callq  400e70 <exit@plt>

000000000040190f <hexmatch>:
  40190f:	41 54                	push   %r12
  401911:	55                   	push   %rbp
  401912:	53                   	push   %rbx
  401913:	48 83 c4 80          	add    $0xffffffffffffff80,%rsp
  401917:	89 fd                	mov    %edi,%ebp
  401919:	48 89 f3             	mov    %rsi,%rbx
  40191c:	64 48 8b 04 25 28 00 	mov    %fs:0x28,%rax
  401923:	00 00 
  401925:	48 89 44 24 78       	mov    %rax,0x78(%rsp)
  40192a:	31 c0                	xor    %eax,%eax
  40192c:	e8 af f4 ff ff       	callq  400de0 <random@plt>
  401931:	48 89 c1             	mov    %rax,%rcx
  401934:	48 ba 0b d7 a3 70 3d 	movabs $0xa3d70a3d70a3d70b,%rdx
  40193b:	0a d7 a3 
  40193e:	48 f7 ea             	imul   %rdx
  401941:	48 01 ca             	add    %rcx,%rdx
  401944:	48 c1 fa 06          	sar    $0x6,%rdx
  401948:	48 89 c8             	mov    %rcx,%rax
  40194b:	48 c1 f8 3f          	sar    $0x3f,%rax
  40194f:	48 29 c2             	sub    %rax,%rdx
  401952:	48 8d 04 92          	lea    (%rdx,%rdx,4),%rax
  401956:	48 8d 14 80          	lea    (%rax,%rax,4),%rdx
  40195a:	48 8d 04 95 00 00 00 	lea    0x0(,%rdx,4),%rax
  401961:	00 
  401962:	48 29 c1             	sub    %rax,%rcx
  401965:	4c 8d 24 0c          	lea    (%rsp,%rcx,1),%r12
  401969:	41 89 e8             	mov    %ebp,%r8d
  40196c:	b9 83 32 40 00       	mov    $0x403283,%ecx
  401971:	48 c7 c2 ff ff ff ff 	mov    $0xffffffffffffffff,%rdx
  401978:	be 01 00 00 00       	mov    $0x1,%esi
  40197d:	4c 89 e7             	mov    %r12,%rdi
  401980:	b8 00 00 00 00       	mov    $0x0,%eax
  401985:	e8 16 f5 ff ff       	callq  400ea0 <__sprintf_chk@plt>
  40198a:	ba 09 00 00 00       	mov    $0x9,%edx
  40198f:	4c 89 e6             	mov    %r12,%rsi
  401992:	48 89 df             	mov    %rbx,%rdi
  401995:	e8 36 f3 ff ff       	callq  400cd0 <strncmp@plt>
  40199a:	85 c0                	test   %eax,%eax
  40199c:	0f 94 c0             	sete   %al
  40199f:	48 8b 5c 24 78       	mov    0x78(%rsp),%rbx
  4019a4:	64 48 33 1c 25 28 00 	xor    %fs:0x28,%rbx
  4019ab:	00 00 
  4019ad:	74 05                	je     4019b4 <hexmatch+0xa5>
  4019af:	e8 5c f3 ff ff       	callq  400d10 <__stack_chk_fail@plt>
  4019b4:	0f b6 c0             	movzbl %al,%eax
  4019b7:	48 83 ec 80          	sub    $0xffffffffffffff80,%rsp
  4019bb:	5b                   	pop    %rbx
  4019bc:	5d                   	pop    %rbp
  4019bd:	41 5c                	pop    %r12
  4019bf:	c3                   	retq   

00000000004019c0 <touch3>:
  4019c0:	53                   	push   %rbx
  4019c1:	48 89 fb             	mov    %rdi,%rbx
  4019c4:	c7 05 4e 3b 20 00 03 	movl   $0x3,0x203b4e(%rip)        # 60551c <vlevel>
  4019cb:	00 00 00 
  4019ce:	48 89 fe             	mov    %rdi,%rsi
  4019d1:	8b 3d 4d 3b 20 00    	mov    0x203b4d(%rip),%edi        # 605524 <cookie>
  4019d7:	e8 33 ff ff ff       	callq  40190f <hexmatch>
  4019dc:	85 c0                	test   %eax,%eax
  4019de:	74 23                	je     401a03 <touch3+0x43>
  4019e0:	48 89 da             	mov    %rbx,%rdx
  4019e3:	be d8 32 40 00       	mov    $0x4032d8,%esi
  4019e8:	bf 01 00 00 00       	mov    $0x1,%edi
  4019ed:	b8 00 00 00 00       	mov    $0x0,%eax
  4019f2:	e8 29 f4 ff ff       	callq  400e20 <__printf_chk@plt>
  4019f7:	bf 03 00 00 00       	mov    $0x3,%edi
  4019fc:	e8 3b 03 00 00       	callq  401d3c <validate>
  401a01:	eb 21                	jmp    401a24 <touch3+0x64>
  401a03:	48 89 da             	mov    %rbx,%rdx
  401a06:	be 00 33 40 00       	mov    $0x403300,%esi
  401a0b:	bf 01 00 00 00       	mov    $0x1,%edi
  401a10:	b8 00 00 00 00       	mov    $0x0,%eax
  401a15:	e8 06 f4 ff ff       	callq  400e20 <__printf_chk@plt>
  401a1a:	bf 03 00 00 00       	mov    $0x3,%edi
  401a1f:	e8 da 03 00 00       	callq  401dfe <fail>
  401a24:	bf 00 00 00 00       	mov    $0x0,%edi
  401a29:	e8 42 f4 ff ff       	callq  400e70 <exit@plt>

0000000000401a2e <test>:
  401a2e:	48 83 ec 08          	sub    $0x8,%rsp
  401a32:	b8 00 00 00 00       	mov    $0x0,%eax
  401a37:	e8 31 fe ff ff       	callq  40186d <getbuf>
  401a3c:	89 c2                	mov    %eax,%edx
  401a3e:	be 28 33 40 00       	mov    $0x403328,%esi
  401a43:	bf 01 00 00 00       	mov    $0x1,%edi
  401a48:	b8 00 00 00 00       	mov    $0x0,%eax
  401a4d:	e8 ce f3 ff ff       	callq  400e20 <__printf_chk@plt>
  401a52:	48 83 c4 08          	add    $0x8,%rsp
  401a56:	c3                   	retq   

0000000000401a57 <save_char>:
  401a57:	8b 05 e7 46 20 00    	mov    0x2046e7(%rip),%eax        # 606144 <gets_cnt>
  401a5d:	3d ff 03 00 00       	cmp    $0x3ff,%eax
  401a62:	7f 49                	jg     401aad <save_char+0x56>
  401a64:	8d 14 40             	lea    (%rax,%rax,2),%edx
  401a67:	89 f9                	mov    %edi,%ecx
  401a69:	c0 e9 04             	shr    $0x4,%cl
  401a6c:	83 e1 0f             	and    $0xf,%ecx
  401a6f:	0f b6 b1 50 36 40 00 	movzbl 0x403650(%rcx),%esi
  401a76:	48 63 ca             	movslq %edx,%rcx
  401a79:	40 88 b1 40 55 60 00 	mov    %sil,0x605540(%rcx)
  401a80:	8d 4a 01             	lea    0x1(%rdx),%ecx
  401a83:	83 e7 0f             	and    $0xf,%edi
  401a86:	0f b6 b7 50 36 40 00 	movzbl 0x403650(%rdi),%esi
  401a8d:	48 63 c9             	movslq %ecx,%rcx
  401a90:	40 88 b1 40 55 60 00 	mov    %sil,0x605540(%rcx)
  401a97:	83 c2 02             	add    $0x2,%edx
  401a9a:	48 63 d2             	movslq %edx,%rdx
  401a9d:	c6 82 40 55 60 00 20 	movb   $0x20,0x605540(%rdx)
  401aa4:	83 c0 01             	add    $0x1,%eax
  401aa7:	89 05 97 46 20 00    	mov    %eax,0x204697(%rip)        # 606144 <gets_cnt>
  401aad:	f3 c3                	repz retq 

0000000000401aaf <save_term>:
  401aaf:	8b 05 8f 46 20 00    	mov    0x20468f(%rip),%eax        # 606144 <gets_cnt>
  401ab5:	8d 04 40             	lea    (%rax,%rax,2),%eax
  401ab8:	48 98                	cltq   
  401aba:	c6 80 40 55 60 00 00 	movb   $0x0,0x605540(%rax)
  401ac1:	c3                   	retq   

0000000000401ac2 <check_fail>:
  401ac2:	48 83 ec 08          	sub    $0x8,%rsp
  401ac6:	0f be 15 7b 46 20 00 	movsbl 0x20467b(%rip),%edx        # 606148 <target_prefix>
  401acd:	41 b8 40 55 60 00    	mov    $0x605540,%r8d
  401ad3:	8b 0d 3f 3a 20 00    	mov    0x203a3f(%rip),%ecx        # 605518 <check_level>
  401ad9:	be 4b 33 40 00       	mov    $0x40334b,%esi
  401ade:	bf 01 00 00 00       	mov    $0x1,%edi
  401ae3:	b8 00 00 00 00       	mov    $0x0,%eax
  401ae8:	e8 33 f3 ff ff       	callq  400e20 <__printf_chk@plt>
  401aed:	bf 01 00 00 00       	mov    $0x1,%edi
  401af2:	e8 79 f3 ff ff       	callq  400e70 <exit@plt>

0000000000401af7 <Gets>:
  401af7:	41 54                	push   %r12
  401af9:	55                   	push   %rbp
  401afa:	53                   	push   %rbx
  401afb:	49 89 fc             	mov    %rdi,%r12
  401afe:	c7 05 3c 46 20 00 00 	movl   $0x0,0x20463c(%rip)        # 606144 <gets_cnt>
  401b05:	00 00 00 
  401b08:	48 89 fb             	mov    %rdi,%rbx
  401b0b:	eb 11                	jmp    401b1e <Gets+0x27>
  401b0d:	48 8d 6b 01          	lea    0x1(%rbx),%rbp
  401b11:	88 03                	mov    %al,(%rbx)
  401b13:	0f b6 f8             	movzbl %al,%edi
  401b16:	e8 3c ff ff ff       	callq  401a57 <save_char>
  401b1b:	48 89 eb             	mov    %rbp,%rbx
  401b1e:	48 8b 3d eb 39 20 00 	mov    0x2039eb(%rip),%rdi        # 605510 <infile>
  401b25:	e8 c6 f2 ff ff       	callq  400df0 <_IO_getc@plt>
  401b2a:	83 f8 ff             	cmp    $0xffffffff,%eax
  401b2d:	74 05                	je     401b34 <Gets+0x3d>
  401b2f:	83 f8 0a             	cmp    $0xa,%eax
  401b32:	75 d9                	jne    401b0d <Gets+0x16>
  401b34:	c6 03 00             	movb   $0x0,(%rbx)
  401b37:	b8 00 00 00 00       	mov    $0x0,%eax
  401b3c:	e8 6e ff ff ff       	callq  401aaf <save_term>
  401b41:	4c 89 e0             	mov    %r12,%rax
  401b44:	5b                   	pop    %rbx
  401b45:	5d                   	pop    %rbp
  401b46:	41 5c                	pop    %r12
  401b48:	c3                   	retq   

0000000000401b49 <notify_server>:
  401b49:	53                   	push   %rbx
  401b4a:	48 81 ec 10 40 00 00 	sub    $0x4010,%rsp
  401b51:	64 48 8b 04 25 28 00 	mov    %fs:0x28,%rax
  401b58:	00 00 
  401b5a:	48 89 84 24 08 40 00 	mov    %rax,0x4008(%rsp)
  401b61:	00 
  401b62:	31 c0                	xor    %eax,%eax
  401b64:	83 3d bd 39 20 00 00 	cmpl   $0x0,0x2039bd(%rip)        # 605528 <is_checker>
  401b6b:	0f 85 aa 01 00 00    	jne    401d1b <notify_server+0x1d2>
  401b71:	89 fb                	mov    %edi,%ebx
  401b73:	8b 05 cb 45 20 00    	mov    0x2045cb(%rip),%eax        # 606144 <gets_cnt>
  401b79:	83 c0 64             	add    $0x64,%eax
  401b7c:	3d 00 20 00 00       	cmp    $0x2000,%eax
  401b81:	7e 1e                	jle    401ba1 <notify_server+0x58>
  401b83:	be 80 34 40 00       	mov    $0x403480,%esi
  401b88:	bf 01 00 00 00       	mov    $0x1,%edi
  401b8d:	b8 00 00 00 00       	mov    $0x0,%eax
  401b92:	e8 89 f2 ff ff       	callq  400e20 <__printf_chk@plt>
  401b97:	bf 01 00 00 00       	mov    $0x1,%edi
  401b9c:	e8 cf f2 ff ff       	callq  400e70 <exit@plt>
  401ba1:	0f be 05 a0 45 20 00 	movsbl 0x2045a0(%rip),%eax        # 606148 <target_prefix>
  401ba8:	83 3d f9 38 20 00 00 	cmpl   $0x0,0x2038f9(%rip)        # 6054a8 <notify>
  401baf:	74 08                	je     401bb9 <notify_server+0x70>
  401bb1:	8b 15 69 39 20 00    	mov    0x203969(%rip),%edx        # 605520 <authkey>
  401bb7:	eb 05                	jmp    401bbe <notify_server+0x75>
  401bb9:	ba ff ff ff ff       	mov    $0xffffffff,%edx
  401bbe:	85 db                	test   %ebx,%ebx
  401bc0:	74 08                	je     401bca <notify_server+0x81>
  401bc2:	41 b9 61 33 40 00    	mov    $0x403361,%r9d
  401bc8:	eb 06                	jmp    401bd0 <notify_server+0x87>
  401bca:	41 b9 66 33 40 00    	mov    $0x403366,%r9d
  401bd0:	68 40 55 60 00       	pushq  $0x605540
  401bd5:	56                   	push   %rsi
  401bd6:	50                   	push   %rax
  401bd7:	52                   	push   %rdx
  401bd8:	44 8b 05 89 35 20 00 	mov    0x203589(%rip),%r8d        # 605168 <target_id>
  401bdf:	b9 6b 33 40 00       	mov    $0x40336b,%ecx
  401be4:	ba 00 20 00 00       	mov    $0x2000,%edx
  401be9:	be 01 00 00 00       	mov    $0x1,%esi
  401bee:	48 8d 7c 24 20       	lea    0x20(%rsp),%rdi
  401bf3:	b8 00 00 00 00       	mov    $0x0,%eax
  401bf8:	e8 a3 f2 ff ff       	callq  400ea0 <__sprintf_chk@plt>
  401bfd:	48 83 c4 20          	add    $0x20,%rsp
  401c01:	83 3d a0 38 20 00 00 	cmpl   $0x0,0x2038a0(%rip)        # 6054a8 <notify>
  401c08:	0f 84 81 00 00 00    	je     401c8f <notify_server+0x146>
  401c0e:	4c 8d 8c 24 00 20 00 	lea    0x2000(%rsp),%r9
  401c15:	00 
  401c16:	41 b8 00 00 00 00    	mov    $0x0,%r8d
  401c1c:	48 89 e1             	mov    %rsp,%rcx
  401c1f:	48 8b 15 4a 35 20 00 	mov    0x20354a(%rip),%rdx        # 605170 <lab>
  401c26:	48 8b 35 4b 35 20 00 	mov    0x20354b(%rip),%rsi        # 605178 <course>
  401c2d:	48 8b 3d 2c 35 20 00 	mov    0x20352c(%rip),%rdi        # 605160 <user_id>
  401c34:	e8 0e 11 00 00       	callq  402d47 <driver_post>
  401c39:	85 c0                	test   %eax,%eax
  401c3b:	79 26                	jns    401c63 <notify_server+0x11a>
  401c3d:	48 8d 94 24 00 20 00 	lea    0x2000(%rsp),%rdx
  401c44:	00 
  401c45:	be 87 33 40 00       	mov    $0x403387,%esi
  401c4a:	bf 01 00 00 00       	mov    $0x1,%edi
  401c4f:	b8 00 00 00 00       	mov    $0x0,%eax
  401c54:	e8 c7 f1 ff ff       	callq  400e20 <__printf_chk@plt>
  401c59:	bf 01 00 00 00       	mov    $0x1,%edi
  401c5e:	e8 0d f2 ff ff       	callq  400e70 <exit@plt>
  401c63:	85 db                	test   %ebx,%ebx
  401c65:	74 19                	je     401c80 <notify_server+0x137>
  401c67:	bf b0 34 40 00       	mov    $0x4034b0,%edi
  401c6c:	e8 7f f0 ff ff       	callq  400cf0 <puts@plt>
  401c71:	bf 93 33 40 00       	mov    $0x403393,%edi
  401c76:	e8 75 f0 ff ff       	callq  400cf0 <puts@plt>
  401c7b:	e9 9b 00 00 00       	jmpq   401d1b <notify_server+0x1d2>
  401c80:	bf 9d 33 40 00       	mov    $0x40339d,%edi
  401c85:	e8 66 f0 ff ff       	callq  400cf0 <puts@plt>
  401c8a:	e9 8c 00 00 00       	jmpq   401d1b <notify_server+0x1d2>
  401c8f:	85 db                	test   %ebx,%ebx
  401c91:	74 07                	je     401c9a <notify_server+0x151>
  401c93:	ba 61 33 40 00       	mov    $0x403361,%edx
  401c98:	eb 05                	jmp    401c9f <notify_server+0x156>
  401c9a:	ba 66 33 40 00       	mov    $0x403366,%edx
  401c9f:	be e8 34 40 00       	mov    $0x4034e8,%esi
  401ca4:	bf 01 00 00 00       	mov    $0x1,%edi
  401ca9:	b8 00 00 00 00       	mov    $0x0,%eax
  401cae:	e8 6d f1 ff ff       	callq  400e20 <__printf_chk@plt>
  401cb3:	48 8b 15 a6 34 20 00 	mov    0x2034a6(%rip),%rdx        # 605160 <user_id>
  401cba:	be a4 33 40 00       	mov    $0x4033a4,%esi
  401cbf:	bf 01 00 00 00       	mov    $0x1,%edi
  401cc4:	b8 00 00 00 00       	mov    $0x0,%eax
  401cc9:	e8 52 f1 ff ff       	callq  400e20 <__printf_chk@plt>
  401cce:	48 8b 15 a3 34 20 00 	mov    0x2034a3(%rip),%rdx        # 605178 <course>
  401cd5:	be b1 33 40 00       	mov    $0x4033b1,%esi
  401cda:	bf 01 00 00 00       	mov    $0x1,%edi
  401cdf:	b8 00 00 00 00       	mov    $0x0,%eax
  401ce4:	e8 37 f1 ff ff       	callq  400e20 <__printf_chk@plt>
  401ce9:	48 8b 15 80 34 20 00 	mov    0x203480(%rip),%rdx        # 605170 <lab>
  401cf0:	be bd 33 40 00       	mov    $0x4033bd,%esi
  401cf5:	bf 01 00 00 00       	mov    $0x1,%edi
  401cfa:	b8 00 00 00 00       	mov    $0x0,%eax
  401cff:	e8 1c f1 ff ff       	callq  400e20 <__printf_chk@plt>
  401d04:	48 89 e2             	mov    %rsp,%rdx
  401d07:	be c6 33 40 00       	mov    $0x4033c6,%esi
  401d0c:	bf 01 00 00 00       	mov    $0x1,%edi
  401d11:	b8 00 00 00 00       	mov    $0x0,%eax
  401d16:	e8 05 f1 ff ff       	callq  400e20 <__printf_chk@plt>
  401d1b:	48 8b 84 24 08 40 00 	mov    0x4008(%rsp),%rax
  401d22:	00 
  401d23:	64 48 33 04 25 28 00 	xor    %fs:0x28,%rax
  401d2a:	00 00 
  401d2c:	74 05                	je     401d33 <notify_server+0x1ea>
  401d2e:	e8 dd ef ff ff       	callq  400d10 <__stack_chk_fail@plt>
  401d33:	48 81 c4 10 40 00 00 	add    $0x4010,%rsp
  401d3a:	5b                   	pop    %rbx
  401d3b:	c3                   	retq   

0000000000401d3c <validate>:
  401d3c:	53                   	push   %rbx
  401d3d:	89 fb                	mov    %edi,%ebx
  401d3f:	83 3d e2 37 20 00 00 	cmpl   $0x0,0x2037e2(%rip)        # 605528 <is_checker>
  401d46:	74 6b                	je     401db3 <validate+0x77>
  401d48:	39 3d ce 37 20 00    	cmp    %edi,0x2037ce(%rip)        # 60551c <vlevel>
  401d4e:	74 14                	je     401d64 <validate+0x28>
  401d50:	bf d2 33 40 00       	mov    $0x4033d2,%edi
  401d55:	e8 96 ef ff ff       	callq  400cf0 <puts@plt>
  401d5a:	b8 00 00 00 00       	mov    $0x0,%eax
  401d5f:	e8 5e fd ff ff       	callq  401ac2 <check_fail>
  401d64:	8b 15 ae 37 20 00    	mov    0x2037ae(%rip),%edx        # 605518 <check_level>
  401d6a:	39 d7                	cmp    %edx,%edi
  401d6c:	74 20                	je     401d8e <validate+0x52>
  401d6e:	89 f9                	mov    %edi,%ecx
  401d70:	be 10 35 40 00       	mov    $0x403510,%esi
  401d75:	bf 01 00 00 00       	mov    $0x1,%edi
  401d7a:	b8 00 00 00 00       	mov    $0x0,%eax
  401d7f:	e8 9c f0 ff ff       	callq  400e20 <__printf_chk@plt>
  401d84:	b8 00 00 00 00       	mov    $0x0,%eax
  401d89:	e8 34 fd ff ff       	callq  401ac2 <check_fail>
  401d8e:	0f be 15 b3 43 20 00 	movsbl 0x2043b3(%rip),%edx        # 606148 <target_prefix>
  401d95:	41 b8 40 55 60 00    	mov    $0x605540,%r8d
  401d9b:	89 f9                	mov    %edi,%ecx
  401d9d:	be f0 33 40 00       	mov    $0x4033f0,%esi
  401da2:	bf 01 00 00 00       	mov    $0x1,%edi
  401da7:	b8 00 00 00 00       	mov    $0x0,%eax
  401dac:	e8 6f f0 ff ff       	callq  400e20 <__printf_chk@plt>
  401db1:	eb 49                	jmp    401dfc <validate+0xc0>
  401db3:	3b 3d 63 37 20 00    	cmp    0x203763(%rip),%edi        # 60551c <vlevel>
  401db9:	74 18                	je     401dd3 <validate+0x97>
  401dbb:	bf d2 33 40 00       	mov    $0x4033d2,%edi
  401dc0:	e8 2b ef ff ff       	callq  400cf0 <puts@plt>
  401dc5:	89 de                	mov    %ebx,%esi
  401dc7:	bf 00 00 00 00       	mov    $0x0,%edi
  401dcc:	e8 78 fd ff ff       	callq  401b49 <notify_server>
  401dd1:	eb 29                	jmp    401dfc <validate+0xc0>
  401dd3:	0f be 0d 6e 43 20 00 	movsbl 0x20436e(%rip),%ecx        # 606148 <target_prefix>
  401dda:	89 fa                	mov    %edi,%edx
  401ddc:	be 38 35 40 00       	mov    $0x403538,%esi
  401de1:	bf 01 00 00 00       	mov    $0x1,%edi
  401de6:	b8 00 00 00 00       	mov    $0x0,%eax
  401deb:	e8 30 f0 ff ff       	callq  400e20 <__printf_chk@plt>
  401df0:	89 de                	mov    %ebx,%esi
  401df2:	bf 01 00 00 00       	mov    $0x1,%edi
  401df7:	e8 4d fd ff ff       	callq  401b49 <notify_server>
  401dfc:	5b                   	pop    %rbx
  401dfd:	c3                   	retq   

0000000000401dfe <fail>:
  401dfe:	48 83 ec 08          	sub    $0x8,%rsp
  401e02:	83 3d 1f 37 20 00 00 	cmpl   $0x0,0x20371f(%rip)        # 605528 <is_checker>
  401e09:	74 0a                	je     401e15 <fail+0x17>
  401e0b:	b8 00 00 00 00       	mov    $0x0,%eax
  401e10:	e8 ad fc ff ff       	callq  401ac2 <check_fail>
  401e15:	89 fe                	mov    %edi,%esi
  401e17:	bf 00 00 00 00       	mov    $0x0,%edi
  401e1c:	e8 28 fd ff ff       	callq  401b49 <notify_server>
  401e21:	48 83 c4 08          	add    $0x8,%rsp
  401e25:	c3                   	retq   

0000000000401e26 <bushandler>:
  401e26:	48 83 ec 08          	sub    $0x8,%rsp
  401e2a:	83 3d f7 36 20 00 00 	cmpl   $0x0,0x2036f7(%rip)        # 605528 <is_checker>
  401e31:	74 14                	je     401e47 <bushandler+0x21>
  401e33:	bf 05 34 40 00       	mov    $0x403405,%edi
  401e38:	e8 b3 ee ff ff       	callq  400cf0 <puts@plt>
  401e3d:	b8 00 00 00 00       	mov    $0x0,%eax
  401e42:	e8 7b fc ff ff       	callq  401ac2 <check_fail>
  401e47:	bf 70 35 40 00       	mov    $0x403570,%edi
  401e4c:	e8 9f ee ff ff       	callq  400cf0 <puts@plt>
  401e51:	bf 0f 34 40 00       	mov    $0x40340f,%edi
  401e56:	e8 95 ee ff ff       	callq  400cf0 <puts@plt>
  401e5b:	be 00 00 00 00       	mov    $0x0,%esi
  401e60:	bf 00 00 00 00       	mov    $0x0,%edi
  401e65:	e8 df fc ff ff       	callq  401b49 <notify_server>
  401e6a:	bf 01 00 00 00       	mov    $0x1,%edi
  401e6f:	e8 fc ef ff ff       	callq  400e70 <exit@plt>

0000000000401e74 <seghandler>:
  401e74:	48 83 ec 08          	sub    $0x8,%rsp
  401e78:	83 3d a9 36 20 00 00 	cmpl   $0x0,0x2036a9(%rip)        # 605528 <is_checker>
  401e7f:	74 14                	je     401e95 <seghandler+0x21>
  401e81:	bf 25 34 40 00       	mov    $0x403425,%edi
  401e86:	e8 65 ee ff ff       	callq  400cf0 <puts@plt>
  401e8b:	b8 00 00 00 00       	mov    $0x0,%eax
  401e90:	e8 2d fc ff ff       	callq  401ac2 <check_fail>
  401e95:	bf 90 35 40 00       	mov    $0x403590,%edi
  401e9a:	e8 51 ee ff ff       	callq  400cf0 <puts@plt>
  401e9f:	bf 0f 34 40 00       	mov    $0x40340f,%edi
  401ea4:	e8 47 ee ff ff       	callq  400cf0 <puts@plt>
  401ea9:	be 00 00 00 00       	mov    $0x0,%esi
  401eae:	bf 00 00 00 00       	mov    $0x0,%edi
  401eb3:	e8 91 fc ff ff       	callq  401b49 <notify_server>
  401eb8:	bf 01 00 00 00       	mov    $0x1,%edi
  401ebd:	e8 ae ef ff ff       	callq  400e70 <exit@plt>

0000000000401ec2 <illegalhandler>:
  401ec2:	48 83 ec 08          	sub    $0x8,%rsp
  401ec6:	83 3d 5b 36 20 00 00 	cmpl   $0x0,0x20365b(%rip)        # 605528 <is_checker>
  401ecd:	74 14                	je     401ee3 <illegalhandler+0x21>
  401ecf:	bf 38 34 40 00       	mov    $0x403438,%edi
  401ed4:	e8 17 ee ff ff       	callq  400cf0 <puts@plt>
  401ed9:	b8 00 00 00 00       	mov    $0x0,%eax
  401ede:	e8 df fb ff ff       	callq  401ac2 <check_fail>
  401ee3:	bf b8 35 40 00       	mov    $0x4035b8,%edi
  401ee8:	e8 03 ee ff ff       	callq  400cf0 <puts@plt>
  401eed:	bf 0f 34 40 00       	mov    $0x40340f,%edi
  401ef2:	e8 f9 ed ff ff       	callq  400cf0 <puts@plt>
  401ef7:	be 00 00 00 00       	mov    $0x0,%esi
  401efc:	bf 00 00 00 00       	mov    $0x0,%edi
  401f01:	e8 43 fc ff ff       	callq  401b49 <notify_server>
  401f06:	bf 01 00 00 00       	mov    $0x1,%edi
  401f0b:	e8 60 ef ff ff       	callq  400e70 <exit@plt>

0000000000401f10 <sigalrmhandler>:
  401f10:	48 83 ec 08          	sub    $0x8,%rsp
  401f14:	83 3d 0d 36 20 00 00 	cmpl   $0x0,0x20360d(%rip)        # 605528 <is_checker>
  401f1b:	74 14                	je     401f31 <sigalrmhandler+0x21>
  401f1d:	bf 4c 34 40 00       	mov    $0x40344c,%edi
  401f22:	e8 c9 ed ff ff       	callq  400cf0 <puts@plt>
  401f27:	b8 00 00 00 00       	mov    $0x0,%eax
  401f2c:	e8 91 fb ff ff       	callq  401ac2 <check_fail>
  401f31:	ba 05 00 00 00       	mov    $0x5,%edx
  401f36:	be e8 35 40 00       	mov    $0x4035e8,%esi
  401f3b:	bf 01 00 00 00       	mov    $0x1,%edi
  401f40:	b8 00 00 00 00       	mov    $0x0,%eax
  401f45:	e8 d6 ee ff ff       	callq  400e20 <__printf_chk@plt>
  401f4a:	be 00 00 00 00       	mov    $0x0,%esi
  401f4f:	bf 00 00 00 00       	mov    $0x0,%edi
  401f54:	e8 f0 fb ff ff       	callq  401b49 <notify_server>
  401f59:	bf 01 00 00 00       	mov    $0x1,%edi
  401f5e:	e8 0d ef ff ff       	callq  400e70 <exit@plt>

0000000000401f63 <launch>:
  401f63:	55                   	push   %rbp
  401f64:	48 89 e5             	mov    %rsp,%rbp
  401f67:	48 83 ec 10          	sub    $0x10,%rsp
  401f6b:	48 89 fa             	mov    %rdi,%rdx
  401f6e:	64 48 8b 04 25 28 00 	mov    %fs:0x28,%rax
  401f75:	00 00 
  401f77:	48 89 45 f8          	mov    %rax,-0x8(%rbp)
  401f7b:	31 c0                	xor    %eax,%eax
  401f7d:	48 8d 47 1e          	lea    0x1e(%rdi),%rax
  401f81:	48 83 e0 f0          	and    $0xfffffffffffffff0,%rax
  401f85:	48 29 c4             	sub    %rax,%rsp
  401f88:	48 8d 7c 24 0f       	lea    0xf(%rsp),%rdi
  401f8d:	48 83 e7 f0          	and    $0xfffffffffffffff0,%rdi
  401f91:	be f4 00 00 00       	mov    $0xf4,%esi
  401f96:	e8 95 ed ff ff       	callq  400d30 <memset@plt>
  401f9b:	48 8b 05 1e 35 20 00 	mov    0x20351e(%rip),%rax        # 6054c0 <stdin@@GLIBC_2.2.5>
  401fa2:	48 39 05 67 35 20 00 	cmp    %rax,0x203567(%rip)        # 605510 <infile>
  401fa9:	75 14                	jne    401fbf <launch+0x5c>
  401fab:	be 54 34 40 00       	mov    $0x403454,%esi
  401fb0:	bf 01 00 00 00       	mov    $0x1,%edi
  401fb5:	b8 00 00 00 00       	mov    $0x0,%eax
  401fba:	e8 61 ee ff ff       	callq  400e20 <__printf_chk@plt>
  401fbf:	c7 05 53 35 20 00 00 	movl   $0x0,0x203553(%rip)        # 60551c <vlevel>
  401fc6:	00 00 00 
  401fc9:	b8 00 00 00 00       	mov    $0x0,%eax
  401fce:	e8 5b fa ff ff       	callq  401a2e <test>
  401fd3:	83 3d 4e 35 20 00 00 	cmpl   $0x0,0x20354e(%rip)        # 605528 <is_checker>
  401fda:	74 14                	je     401ff0 <launch+0x8d>
  401fdc:	bf 61 34 40 00       	mov    $0x403461,%edi
  401fe1:	e8 0a ed ff ff       	callq  400cf0 <puts@plt>
  401fe6:	b8 00 00 00 00       	mov    $0x0,%eax
  401feb:	e8 d2 fa ff ff       	callq  401ac2 <check_fail>
  401ff0:	bf 6c 34 40 00       	mov    $0x40346c,%edi
  401ff5:	e8 f6 ec ff ff       	callq  400cf0 <puts@plt>
  401ffa:	48 8b 45 f8          	mov    -0x8(%rbp),%rax
  401ffe:	64 48 33 04 25 28 00 	xor    %fs:0x28,%rax
  402005:	00 00 
  402007:	74 05                	je     40200e <launch+0xab>
  402009:	e8 02 ed ff ff       	callq  400d10 <__stack_chk_fail@plt>
  40200e:	c9                   	leaveq 
  40200f:	c3                   	retq   

0000000000402010 <stable_launch>:
  402010:	53                   	push   %rbx
  402011:	48 89 3d f0 34 20 00 	mov    %rdi,0x2034f0(%rip)        # 605508 <global_offset>
  402018:	41 b9 00 00 00 00    	mov    $0x0,%r9d
  40201e:	41 b8 00 00 00 00    	mov    $0x0,%r8d
  402024:	b9 32 01 00 00       	mov    $0x132,%ecx
  402029:	ba 07 00 00 00       	mov    $0x7,%edx
  40202e:	be 00 00 10 00       	mov    $0x100000,%esi
  402033:	bf 00 60 58 55       	mov    $0x55586000,%edi
  402038:	e8 e3 ec ff ff       	callq  400d20 <mmap@plt>
  40203d:	48 89 c3             	mov    %rax,%rbx
  402040:	48 3d 00 60 58 55    	cmp    $0x55586000,%rax
  402046:	74 37                	je     40207f <stable_launch+0x6f>
  402048:	be 00 00 10 00       	mov    $0x100000,%esi
  40204d:	48 89 c7             	mov    %rax,%rdi
  402050:	e8 bb ed ff ff       	callq  400e10 <munmap@plt>
  402055:	b9 00 60 58 55       	mov    $0x55586000,%ecx
  40205a:	ba 20 36 40 00       	mov    $0x403620,%edx
  40205f:	be 01 00 00 00       	mov    $0x1,%esi
  402064:	48 8b 3d 75 34 20 00 	mov    0x203475(%rip),%rdi        # 6054e0 <stderr@@GLIBC_2.2.5>
  40206b:	b8 00 00 00 00       	mov    $0x0,%eax
  402070:	e8 1b ee ff ff       	callq  400e90 <__fprintf_chk@plt>
  402075:	bf 01 00 00 00       	mov    $0x1,%edi
  40207a:	e8 f1 ed ff ff       	callq  400e70 <exit@plt>
  40207f:	48 8d 90 f8 ff 0f 00 	lea    0xffff8(%rax),%rdx
  402086:	48 89 15 c3 40 20 00 	mov    %rdx,0x2040c3(%rip)        # 606150 <stack_top>
  40208d:	48 89 e0             	mov    %rsp,%rax
  402090:	48 89 d4             	mov    %rdx,%rsp
  402093:	48 89 c2             	mov    %rax,%rdx
  402096:	48 89 15 63 34 20 00 	mov    %rdx,0x203463(%rip)        # 605500 <global_save_stack>
  40209d:	48 8b 3d 64 34 20 00 	mov    0x203464(%rip),%rdi        # 605508 <global_offset>
  4020a4:	e8 ba fe ff ff       	callq  401f63 <launch>
  4020a9:	48 8b 05 50 34 20 00 	mov    0x203450(%rip),%rax        # 605500 <global_save_stack>
  4020b0:	48 89 c4             	mov    %rax,%rsp
  4020b3:	be 00 00 10 00       	mov    $0x100000,%esi
  4020b8:	48 89 df             	mov    %rbx,%rdi
  4020bb:	e8 50 ed ff ff       	callq  400e10 <munmap@plt>
  4020c0:	5b                   	pop    %rbx
  4020c1:	c3                   	retq   

00000000004020c2 <rio_readinitb>:
  4020c2:	89 37                	mov    %esi,(%rdi)
  4020c4:	c7 47 04 00 00 00 00 	movl   $0x0,0x4(%rdi)
  4020cb:	48 8d 47 10          	lea    0x10(%rdi),%rax
  4020cf:	48 89 47 08          	mov    %rax,0x8(%rdi)
  4020d3:	c3                   	retq   

00000000004020d4 <sigalrm_handler>:
  4020d4:	48 83 ec 08          	sub    $0x8,%rsp
  4020d8:	b9 00 00 00 00       	mov    $0x0,%ecx
  4020dd:	ba 60 36 40 00       	mov    $0x403660,%edx
  4020e2:	be 01 00 00 00       	mov    $0x1,%esi
  4020e7:	48 8b 3d f2 33 20 00 	mov    0x2033f2(%rip),%rdi        # 6054e0 <stderr@@GLIBC_2.2.5>
  4020ee:	b8 00 00 00 00       	mov    $0x0,%eax
  4020f3:	e8 98 ed ff ff       	callq  400e90 <__fprintf_chk@plt>
  4020f8:	bf 01 00 00 00       	mov    $0x1,%edi
  4020fd:	e8 6e ed ff ff       	callq  400e70 <exit@plt>

0000000000402102 <rio_writen>:
  402102:	41 55                	push   %r13
  402104:	41 54                	push   %r12
  402106:	55                   	push   %rbp
  402107:	53                   	push   %rbx
  402108:	48 83 ec 08          	sub    $0x8,%rsp
  40210c:	41 89 fc             	mov    %edi,%r12d
  40210f:	48 89 f5             	mov    %rsi,%rbp
  402112:	49 89 d5             	mov    %rdx,%r13
  402115:	48 89 d3             	mov    %rdx,%rbx
  402118:	eb 28                	jmp    402142 <rio_writen+0x40>
  40211a:	48 89 da             	mov    %rbx,%rdx
  40211d:	48 89 ee             	mov    %rbp,%rsi
  402120:	44 89 e7             	mov    %r12d,%edi
  402123:	e8 d8 eb ff ff       	callq  400d00 <write@plt>
  402128:	48 85 c0             	test   %rax,%rax
  40212b:	7f 0f                	jg     40213c <rio_writen+0x3a>
  40212d:	e8 7e eb ff ff       	callq  400cb0 <__errno_location@plt>
  402132:	83 38 04             	cmpl   $0x4,(%rax)
  402135:	75 15                	jne    40214c <rio_writen+0x4a>
  402137:	b8 00 00 00 00       	mov    $0x0,%eax
  40213c:	48 29 c3             	sub    %rax,%rbx
  40213f:	48 01 c5             	add    %rax,%rbp
  402142:	48 85 db             	test   %rbx,%rbx
  402145:	75 d3                	jne    40211a <rio_writen+0x18>
  402147:	4c 89 e8             	mov    %r13,%rax
  40214a:	eb 07                	jmp    402153 <rio_writen+0x51>
  40214c:	48 c7 c0 ff ff ff ff 	mov    $0xffffffffffffffff,%rax
  402153:	48 83 c4 08          	add    $0x8,%rsp
  402157:	5b                   	pop    %rbx
  402158:	5d                   	pop    %rbp
  402159:	41 5c                	pop    %r12
  40215b:	41 5d                	pop    %r13
  40215d:	c3                   	retq   

000000000040215e <rio_read>:
  40215e:	41 55                	push   %r13
  402160:	41 54                	push   %r12
  402162:	55                   	push   %rbp
  402163:	53                   	push   %rbx
  402164:	48 83 ec 08          	sub    $0x8,%rsp
  402168:	48 89 fb             	mov    %rdi,%rbx
  40216b:	49 89 f5             	mov    %rsi,%r13
  40216e:	49 89 d4             	mov    %rdx,%r12
  402171:	eb 2e                	jmp    4021a1 <rio_read+0x43>
  402173:	48 8d 6b 10          	lea    0x10(%rbx),%rbp
  402177:	8b 3b                	mov    (%rbx),%edi
  402179:	ba 00 20 00 00       	mov    $0x2000,%edx
  40217e:	48 89 ee             	mov    %rbp,%rsi
  402181:	e8 da eb ff ff       	callq  400d60 <read@plt>
  402186:	89 43 04             	mov    %eax,0x4(%rbx)
  402189:	85 c0                	test   %eax,%eax
  40218b:	79 0c                	jns    402199 <rio_read+0x3b>
  40218d:	e8 1e eb ff ff       	callq  400cb0 <__errno_location@plt>
  402192:	83 38 04             	cmpl   $0x4,(%rax)
  402195:	74 0a                	je     4021a1 <rio_read+0x43>
  402197:	eb 37                	jmp    4021d0 <rio_read+0x72>
  402199:	85 c0                	test   %eax,%eax
  40219b:	74 3c                	je     4021d9 <rio_read+0x7b>
  40219d:	48 89 6b 08          	mov    %rbp,0x8(%rbx)
  4021a1:	8b 6b 04             	mov    0x4(%rbx),%ebp
  4021a4:	85 ed                	test   %ebp,%ebp
  4021a6:	7e cb                	jle    402173 <rio_read+0x15>
  4021a8:	89 e8                	mov    %ebp,%eax
  4021aa:	49 39 c4             	cmp    %rax,%r12
  4021ad:	77 03                	ja     4021b2 <rio_read+0x54>
  4021af:	44 89 e5             	mov    %r12d,%ebp
  4021b2:	4c 63 e5             	movslq %ebp,%r12
  4021b5:	48 8b 73 08          	mov    0x8(%rbx),%rsi
  4021b9:	4c 89 e2             	mov    %r12,%rdx
  4021bc:	4c 89 ef             	mov    %r13,%rdi
  4021bf:	e8 fc eb ff ff       	callq  400dc0 <memcpy@plt>
  4021c4:	4c 01 63 08          	add    %r12,0x8(%rbx)
  4021c8:	29 6b 04             	sub    %ebp,0x4(%rbx)
  4021cb:	4c 89 e0             	mov    %r12,%rax
  4021ce:	eb 0e                	jmp    4021de <rio_read+0x80>
  4021d0:	48 c7 c0 ff ff ff ff 	mov    $0xffffffffffffffff,%rax
  4021d7:	eb 05                	jmp    4021de <rio_read+0x80>
  4021d9:	b8 00 00 00 00       	mov    $0x0,%eax
  4021de:	48 83 c4 08          	add    $0x8,%rsp
  4021e2:	5b                   	pop    %rbx
  4021e3:	5d                   	pop    %rbp
  4021e4:	41 5c                	pop    %r12
  4021e6:	41 5d                	pop    %r13
  4021e8:	c3                   	retq   

00000000004021e9 <rio_readlineb>:
  4021e9:	41 55                	push   %r13
  4021eb:	41 54                	push   %r12
  4021ed:	55                   	push   %rbp
  4021ee:	53                   	push   %rbx
  4021ef:	48 83 ec 18          	sub    $0x18,%rsp
  4021f3:	49 89 fd             	mov    %rdi,%r13
  4021f6:	48 89 f5             	mov    %rsi,%rbp
  4021f9:	49 89 d4             	mov    %rdx,%r12
  4021fc:	64 48 8b 04 25 28 00 	mov    %fs:0x28,%rax
  402203:	00 00 
  402205:	48 89 44 24 08       	mov    %rax,0x8(%rsp)
  40220a:	31 c0                	xor    %eax,%eax
  40220c:	bb 01 00 00 00       	mov    $0x1,%ebx
  402211:	eb 3f                	jmp    402252 <rio_readlineb+0x69>
  402213:	ba 01 00 00 00       	mov    $0x1,%edx
  402218:	48 8d 74 24 07       	lea    0x7(%rsp),%rsi
  40221d:	4c 89 ef             	mov    %r13,%rdi
  402220:	e8 39 ff ff ff       	callq  40215e <rio_read>
  402225:	83 f8 01             	cmp    $0x1,%eax
  402228:	75 15                	jne    40223f <rio_readlineb+0x56>
  40222a:	48 8d 45 01          	lea    0x1(%rbp),%rax
  40222e:	0f b6 54 24 07       	movzbl 0x7(%rsp),%edx
  402233:	88 55 00             	mov    %dl,0x0(%rbp)
  402236:	80 7c 24 07 0a       	cmpb   $0xa,0x7(%rsp)
  40223b:	75 0e                	jne    40224b <rio_readlineb+0x62>
  40223d:	eb 1a                	jmp    402259 <rio_readlineb+0x70>
  40223f:	85 c0                	test   %eax,%eax
  402241:	75 22                	jne    402265 <rio_readlineb+0x7c>
  402243:	48 83 fb 01          	cmp    $0x1,%rbx
  402247:	75 13                	jne    40225c <rio_readlineb+0x73>
  402249:	eb 23                	jmp    40226e <rio_readlineb+0x85>
  40224b:	48 83 c3 01          	add    $0x1,%rbx
  40224f:	48 89 c5             	mov    %rax,%rbp
  402252:	4c 39 e3             	cmp    %r12,%rbx
  402255:	72 bc                	jb     402213 <rio_readlineb+0x2a>
  402257:	eb 03                	jmp    40225c <rio_readlineb+0x73>
  402259:	48 89 c5             	mov    %rax,%rbp
  40225c:	c6 45 00 00          	movb   $0x0,0x0(%rbp)
  402260:	48 89 d8             	mov    %rbx,%rax
  402263:	eb 0e                	jmp    402273 <rio_readlineb+0x8a>
  402265:	48 c7 c0 ff ff ff ff 	mov    $0xffffffffffffffff,%rax
  40226c:	eb 05                	jmp    402273 <rio_readlineb+0x8a>
  40226e:	b8 00 00 00 00       	mov    $0x0,%eax
  402273:	48 8b 4c 24 08       	mov    0x8(%rsp),%rcx
  402278:	64 48 33 0c 25 28 00 	xor    %fs:0x28,%rcx
  40227f:	00 00 
  402281:	74 05                	je     402288 <rio_readlineb+0x9f>
  402283:	e8 88 ea ff ff       	callq  400d10 <__stack_chk_fail@plt>
  402288:	48 83 c4 18          	add    $0x18,%rsp
  40228c:	5b                   	pop    %rbx
  40228d:	5d                   	pop    %rbp
  40228e:	41 5c                	pop    %r12
  402290:	41 5d                	pop    %r13
  402292:	c3                   	retq   

0000000000402293 <urlencode>:
  402293:	41 54                	push   %r12
  402295:	55                   	push   %rbp
  402296:	53                   	push   %rbx
  402297:	48 83 ec 10          	sub    $0x10,%rsp
  40229b:	48 89 fb             	mov    %rdi,%rbx
  40229e:	48 89 f5             	mov    %rsi,%rbp
  4022a1:	64 48 8b 04 25 28 00 	mov    %fs:0x28,%rax
  4022a8:	00 00 
  4022aa:	48 89 44 24 08       	mov    %rax,0x8(%rsp)
  4022af:	31 c0                	xor    %eax,%eax
  4022b1:	48 c7 c1 ff ff ff ff 	mov    $0xffffffffffffffff,%rcx
  4022b8:	f2 ae                	repnz scas %es:(%rdi),%al
  4022ba:	48 f7 d1             	not    %rcx
  4022bd:	8d 41 ff             	lea    -0x1(%rcx),%eax
  4022c0:	e9 aa 00 00 00       	jmpq   40236f <urlencode+0xdc>
  4022c5:	44 0f b6 03          	movzbl (%rbx),%r8d
  4022c9:	41 80 f8 2a          	cmp    $0x2a,%r8b
  4022cd:	0f 94 c2             	sete   %dl
  4022d0:	41 80 f8 2d          	cmp    $0x2d,%r8b
  4022d4:	0f 94 c0             	sete   %al
  4022d7:	08 c2                	or     %al,%dl
  4022d9:	75 24                	jne    4022ff <urlencode+0x6c>
  4022db:	41 80 f8 2e          	cmp    $0x2e,%r8b
  4022df:	74 1e                	je     4022ff <urlencode+0x6c>
  4022e1:	41 80 f8 5f          	cmp    $0x5f,%r8b
  4022e5:	74 18                	je     4022ff <urlencode+0x6c>
  4022e7:	41 8d 40 d0          	lea    -0x30(%r8),%eax
  4022eb:	3c 09                	cmp    $0x9,%al
  4022ed:	76 10                	jbe    4022ff <urlencode+0x6c>
  4022ef:	41 8d 40 bf          	lea    -0x41(%r8),%eax
  4022f3:	3c 19                	cmp    $0x19,%al
  4022f5:	76 08                	jbe    4022ff <urlencode+0x6c>
  4022f7:	41 8d 40 9f          	lea    -0x61(%r8),%eax
  4022fb:	3c 19                	cmp    $0x19,%al
  4022fd:	77 0a                	ja     402309 <urlencode+0x76>
  4022ff:	44 88 45 00          	mov    %r8b,0x0(%rbp)
  402303:	48 8d 6d 01          	lea    0x1(%rbp),%rbp
  402307:	eb 5f                	jmp    402368 <urlencode+0xd5>
  402309:	41 80 f8 20          	cmp    $0x20,%r8b
  40230d:	75 0a                	jne    402319 <urlencode+0x86>
  40230f:	c6 45 00 2b          	movb   $0x2b,0x0(%rbp)
  402313:	48 8d 6d 01          	lea    0x1(%rbp),%rbp
  402317:	eb 4f                	jmp    402368 <urlencode+0xd5>
  402319:	41 8d 40 e0          	lea    -0x20(%r8),%eax
  40231d:	3c 5f                	cmp    $0x5f,%al
  40231f:	0f 96 c2             	setbe  %dl
  402322:	41 80 f8 09          	cmp    $0x9,%r8b
  402326:	0f 94 c0             	sete   %al
  402329:	08 c2                	or     %al,%dl
  40232b:	74 50                	je     40237d <urlencode+0xea>
  40232d:	45 0f b6 c0          	movzbl %r8b,%r8d
  402331:	b9 18 37 40 00       	mov    $0x403718,%ecx
  402336:	ba 08 00 00 00       	mov    $0x8,%edx
  40233b:	be 01 00 00 00       	mov    $0x1,%esi
  402340:	48 89 e7             	mov    %rsp,%rdi
  402343:	b8 00 00 00 00       	mov    $0x0,%eax
  402348:	e8 53 eb ff ff       	callq  400ea0 <__sprintf_chk@plt>
  40234d:	0f b6 04 24          	movzbl (%rsp),%eax
  402351:	88 45 00             	mov    %al,0x0(%rbp)
  402354:	0f b6 44 24 01       	movzbl 0x1(%rsp),%eax
  402359:	88 45 01             	mov    %al,0x1(%rbp)
  40235c:	0f b6 44 24 02       	movzbl 0x2(%rsp),%eax
  402361:	88 45 02             	mov    %al,0x2(%rbp)
  402364:	48 8d 6d 03          	lea    0x3(%rbp),%rbp
  402368:	48 83 c3 01          	add    $0x1,%rbx
  40236c:	44 89 e0             	mov    %r12d,%eax
  40236f:	44 8d 60 ff          	lea    -0x1(%rax),%r12d
  402373:	85 c0                	test   %eax,%eax
  402375:	0f 85 4a ff ff ff    	jne    4022c5 <urlencode+0x32>
  40237b:	eb 05                	jmp    402382 <urlencode+0xef>
  40237d:	b8 ff ff ff ff       	mov    $0xffffffff,%eax
  402382:	48 8b 74 24 08       	mov    0x8(%rsp),%rsi
  402387:	64 48 33 34 25 28 00 	xor    %fs:0x28,%rsi
  40238e:	00 00 
  402390:	74 05                	je     402397 <urlencode+0x104>
  402392:	e8 79 e9 ff ff       	callq  400d10 <__stack_chk_fail@plt>
  402397:	48 83 c4 10          	add    $0x10,%rsp
  40239b:	5b                   	pop    %rbx
  40239c:	5d                   	pop    %rbp
  40239d:	41 5c                	pop    %r12
  40239f:	c3                   	retq   

00000000004023a0 <submitr>:
  4023a0:	41 57                	push   %r15
  4023a2:	41 56                	push   %r14
  4023a4:	41 55                	push   %r13
  4023a6:	41 54                	push   %r12
  4023a8:	55                   	push   %rbp
  4023a9:	53                   	push   %rbx
  4023aa:	48 81 ec 58 a0 00 00 	sub    $0xa058,%rsp
  4023b1:	49 89 fd             	mov    %rdi,%r13
  4023b4:	89 74 24 0c          	mov    %esi,0xc(%rsp)
  4023b8:	48 89 14 24          	mov    %rdx,(%rsp)
  4023bc:	49 89 ce             	mov    %rcx,%r14
  4023bf:	4d 89 c7             	mov    %r8,%r15
  4023c2:	4d 89 cc             	mov    %r9,%r12
  4023c5:	48 8b 9c 24 90 a0 00 	mov    0xa090(%rsp),%rbx
  4023cc:	00 
  4023cd:	64 48 8b 04 25 28 00 	mov    %fs:0x28,%rax
  4023d4:	00 00 
  4023d6:	48 89 84 24 48 a0 00 	mov    %rax,0xa048(%rsp)
  4023dd:	00 
  4023de:	31 c0                	xor    %eax,%eax
  4023e0:	c7 44 24 1c 00 00 00 	movl   $0x0,0x1c(%rsp)
  4023e7:	00 
  4023e8:	ba 00 00 00 00       	mov    $0x0,%edx
  4023ed:	be 01 00 00 00       	mov    $0x1,%esi
  4023f2:	bf 02 00 00 00       	mov    $0x2,%edi
  4023f7:	e8 b4 ea ff ff       	callq  400eb0 <socket@plt>
  4023fc:	85 c0                	test   %eax,%eax
  4023fe:	79 4e                	jns    40244e <submitr+0xae>
  402400:	48 b8 45 72 72 6f 72 	movabs $0x43203a726f727245,%rax
  402407:	3a 20 43 
  40240a:	48 89 03             	mov    %rax,(%rbx)
  40240d:	48 b8 6c 69 65 6e 74 	movabs $0x6e7520746e65696c,%rax
  402414:	20 75 6e 
  402417:	48 89 43 08          	mov    %rax,0x8(%rbx)
  40241b:	48 b8 61 62 6c 65 20 	movabs $0x206f7420656c6261,%rax
  402422:	74 6f 20 
  402425:	48 89 43 10          	mov    %rax,0x10(%rbx)
  402429:	48 b8 63 72 65 61 74 	movabs $0x7320657461657263,%rax
  402430:	65 20 73 
  402433:	48 89 43 18          	mov    %rax,0x18(%rbx)
  402437:	c7 43 20 6f 63 6b 65 	movl   $0x656b636f,0x20(%rbx)
  40243e:	66 c7 43 24 74 00    	movw   $0x74,0x24(%rbx)
  402444:	b8 ff ff ff ff       	mov    $0xffffffff,%eax
  402449:	e9 b3 06 00 00       	jmpq   402b01 <submitr+0x761>
  40244e:	89 c5                	mov    %eax,%ebp
  402450:	4c 89 ef             	mov    %r13,%rdi
  402453:	e8 38 e9 ff ff       	callq  400d90 <gethostbyname@plt>
  402458:	48 85 c0             	test   %rax,%rax
  40245b:	75 75                	jne    4024d2 <submitr+0x132>
  40245d:	48 b8 45 72 72 6f 72 	movabs $0x44203a726f727245,%rax
  402464:	3a 20 44 
  402467:	48 89 03             	mov    %rax,(%rbx)
  40246a:	48 b8 4e 53 20 69 73 	movabs $0x6e7520736920534e,%rax
  402471:	20 75 6e 
  402474:	48 89 43 08          	mov    %rax,0x8(%rbx)
  402478:	48 b8 61 62 6c 65 20 	movabs $0x206f7420656c6261,%rax
  40247f:	74 6f 20 
  402482:	48 89 43 10          	mov    %rax,0x10(%rbx)
  402486:	48 b8 72 65 73 6f 6c 	movabs $0x2065766c6f736572,%rax
  40248d:	76 65 20 
  402490:	48 89 43 18          	mov    %rax,0x18(%rbx)
  402494:	48 b8 41 75 74 6f 6c 	movabs $0x2062616c6f747541,%rax
  40249b:	61 62 20 
  40249e:	48 89 43 20          	mov    %rax,0x20(%rbx)
  4024a2:	48 b8 73 65 72 76 65 	movabs $0x6120726576726573,%rax
  4024a9:	72 20 61 
  4024ac:	48 89 43 28          	mov    %rax,0x28(%rbx)
  4024b0:	c7 43 30 64 64 72 65 	movl   $0x65726464,0x30(%rbx)
  4024b7:	66 c7 43 34 73 73    	movw   $0x7373,0x34(%rbx)
  4024bd:	c6 43 36 00          	movb   $0x0,0x36(%rbx)
  4024c1:	89 ef                	mov    %ebp,%edi
  4024c3:	e8 88 e8 ff ff       	callq  400d50 <close@plt>
  4024c8:	b8 ff ff ff ff       	mov    $0xffffffff,%eax
  4024cd:	e9 2f 06 00 00       	jmpq   402b01 <submitr+0x761>
  4024d2:	48 c7 44 24 20 00 00 	movq   $0x0,0x20(%rsp)
  4024d9:	00 00 
  4024db:	48 c7 44 24 28 00 00 	movq   $0x0,0x28(%rsp)
  4024e2:	00 00 
  4024e4:	66 c7 44 24 20 02 00 	movw   $0x2,0x20(%rsp)
  4024eb:	48 63 50 14          	movslq 0x14(%rax),%rdx
  4024ef:	48 8b 40 18          	mov    0x18(%rax),%rax
  4024f3:	48 8b 30             	mov    (%rax),%rsi
  4024f6:	48 8d 7c 24 24       	lea    0x24(%rsp),%rdi
  4024fb:	b9 0c 00 00 00       	mov    $0xc,%ecx
  402500:	e8 9b e8 ff ff       	callq  400da0 <__memmove_chk@plt>
  402505:	0f b7 44 24 0c       	movzwl 0xc(%rsp),%eax
  40250a:	66 c1 c8 08          	ror    $0x8,%ax
  40250e:	66 89 44 24 22       	mov    %ax,0x22(%rsp)
  402513:	ba 10 00 00 00       	mov    $0x10,%edx
  402518:	48 8d 74 24 20       	lea    0x20(%rsp),%rsi
  40251d:	89 ef                	mov    %ebp,%edi
  40251f:	e8 5c e9 ff ff       	callq  400e80 <connect@plt>
  402524:	85 c0                	test   %eax,%eax
  402526:	79 67                	jns    40258f <submitr+0x1ef>
  402528:	48 b8 45 72 72 6f 72 	movabs $0x55203a726f727245,%rax
  40252f:	3a 20 55 
  402532:	48 89 03             	mov    %rax,(%rbx)
  402535:	48 b8 6e 61 62 6c 65 	movabs $0x6f7420656c62616e,%rax
  40253c:	20 74 6f 
  40253f:	48 89 43 08          	mov    %rax,0x8(%rbx)
  402543:	48 b8 20 63 6f 6e 6e 	movabs $0x7463656e6e6f6320,%rax
  40254a:	65 63 74 
  40254d:	48 89 43 10          	mov    %rax,0x10(%rbx)
  402551:	48 b8 20 74 6f 20 74 	movabs $0x20656874206f7420,%rax
  402558:	68 65 20 
  40255b:	48 89 43 18          	mov    %rax,0x18(%rbx)
  40255f:	48 b8 41 75 74 6f 6c 	movabs $0x2062616c6f747541,%rax
  402566:	61 62 20 
  402569:	48 89 43 20          	mov    %rax,0x20(%rbx)
  40256d:	c7 43 28 73 65 72 76 	movl   $0x76726573,0x28(%rbx)
  402574:	66 c7 43 2c 65 72    	movw   $0x7265,0x2c(%rbx)
  40257a:	c6 43 2e 00          	movb   $0x0,0x2e(%rbx)
  40257e:	89 ef                	mov    %ebp,%edi
  402580:	e8 cb e7 ff ff       	callq  400d50 <close@plt>
  402585:	b8 ff ff ff ff       	mov    $0xffffffff,%eax
  40258a:	e9 72 05 00 00       	jmpq   402b01 <submitr+0x761>
  40258f:	48 c7 c6 ff ff ff ff 	mov    $0xffffffffffffffff,%rsi
  402596:	b8 00 00 00 00       	mov    $0x0,%eax
  40259b:	48 89 f1             	mov    %rsi,%rcx
  40259e:	4c 89 e7             	mov    %r12,%rdi
  4025a1:	f2 ae                	repnz scas %es:(%rdi),%al
  4025a3:	48 f7 d1             	not    %rcx
  4025a6:	48 89 ca             	mov    %rcx,%rdx
  4025a9:	48 89 f1             	mov    %rsi,%rcx
  4025ac:	48 8b 3c 24          	mov    (%rsp),%rdi
  4025b0:	f2 ae                	repnz scas %es:(%rdi),%al
  4025b2:	48 f7 d1             	not    %rcx
  4025b5:	49 89 c8             	mov    %rcx,%r8
  4025b8:	48 89 f1             	mov    %rsi,%rcx
  4025bb:	4c 89 f7             	mov    %r14,%rdi
  4025be:	f2 ae                	repnz scas %es:(%rdi),%al
  4025c0:	48 f7 d1             	not    %rcx
  4025c3:	4d 8d 44 08 fe       	lea    -0x2(%r8,%rcx,1),%r8
  4025c8:	48 89 f1             	mov    %rsi,%rcx
  4025cb:	4c 89 ff             	mov    %r15,%rdi
  4025ce:	f2 ae                	repnz scas %es:(%rdi),%al
  4025d0:	48 89 c8             	mov    %rcx,%rax
  4025d3:	48 f7 d0             	not    %rax
  4025d6:	49 8d 4c 00 ff       	lea    -0x1(%r8,%rax,1),%rcx
  4025db:	48 8d 44 52 fd       	lea    -0x3(%rdx,%rdx,2),%rax
  4025e0:	48 8d 84 01 80 00 00 	lea    0x80(%rcx,%rax,1),%rax
  4025e7:	00 
  4025e8:	48 3d 00 20 00 00    	cmp    $0x2000,%rax
  4025ee:	76 72                	jbe    402662 <submitr+0x2c2>
  4025f0:	48 b8 45 72 72 6f 72 	movabs $0x52203a726f727245,%rax
  4025f7:	3a 20 52 
  4025fa:	48 89 03             	mov    %rax,(%rbx)
  4025fd:	48 b8 65 73 75 6c 74 	movabs $0x747320746c757365,%rax
  402604:	20 73 74 
  402607:	48 89 43 08          	mov    %rax,0x8(%rbx)
  40260b:	48 b8 72 69 6e 67 20 	movabs $0x6f6f7420676e6972,%rax
  402612:	74 6f 6f 
  402615:	48 89 43 10          	mov    %rax,0x10(%rbx)
  402619:	48 b8 20 6c 61 72 67 	movabs $0x202e656772616c20,%rax
  402620:	65 2e 20 
  402623:	48 89 43 18          	mov    %rax,0x18(%rbx)
  402627:	48 b8 49 6e 63 72 65 	movabs $0x6573616572636e49,%rax
  40262e:	61 73 65 
  402631:	48 89 43 20          	mov    %rax,0x20(%rbx)
  402635:	48 b8 20 53 55 42 4d 	movabs $0x5254494d42555320,%rax
  40263c:	49 54 52 
  40263f:	48 89 43 28          	mov    %rax,0x28(%rbx)
  402643:	48 b8 5f 4d 41 58 42 	movabs $0x46554258414d5f,%rax
  40264a:	55 46 00 
  40264d:	48 89 43 30          	mov    %rax,0x30(%rbx)
  402651:	89 ef                	mov    %ebp,%edi
  402653:	e8 f8 e6 ff ff       	callq  400d50 <close@plt>
  402658:	b8 ff ff ff ff       	mov    $0xffffffff,%eax
  40265d:	e9 9f 04 00 00       	jmpq   402b01 <submitr+0x761>
  402662:	48 8d b4 24 40 40 00 	lea    0x4040(%rsp),%rsi
  402669:	00 
  40266a:	b9 00 04 00 00       	mov    $0x400,%ecx
  40266f:	b8 00 00 00 00       	mov    $0x0,%eax
  402674:	48 89 f7             	mov    %rsi,%rdi
  402677:	f3 48 ab             	rep stos %rax,%es:(%rdi)
  40267a:	4c 89 e7             	mov    %r12,%rdi
  40267d:	e8 11 fc ff ff       	callq  402293 <urlencode>
  402682:	85 c0                	test   %eax,%eax
  402684:	0f 89 8a 00 00 00    	jns    402714 <submitr+0x374>
  40268a:	48 b8 45 72 72 6f 72 	movabs $0x52203a726f727245,%rax
  402691:	3a 20 52 
  402694:	48 89 03             	mov    %rax,(%rbx)
  402697:	48 b8 65 73 75 6c 74 	movabs $0x747320746c757365,%rax
  40269e:	20 73 74 
  4026a1:	48 89 43 08          	mov    %rax,0x8(%rbx)
  4026a5:	48 b8 72 69 6e 67 20 	movabs $0x6e6f6320676e6972,%rax
  4026ac:	63 6f 6e 
  4026af:	48 89 43 10          	mov    %rax,0x10(%rbx)
  4026b3:	48 b8 74 61 69 6e 73 	movabs $0x6e6120736e696174,%rax
  4026ba:	20 61 6e 
  4026bd:	48 89 43 18          	mov    %rax,0x18(%rbx)
  4026c1:	48 b8 20 69 6c 6c 65 	movabs $0x6c6167656c6c6920,%rax
  4026c8:	67 61 6c 
  4026cb:	48 89 43 20          	mov    %rax,0x20(%rbx)
  4026cf:	48 b8 20 6f 72 20 75 	movabs $0x72706e7520726f20,%rax
  4026d6:	6e 70 72 
  4026d9:	48 89 43 28          	mov    %rax,0x28(%rbx)
  4026dd:	48 b8 69 6e 74 61 62 	movabs $0x20656c6261746e69,%rax
  4026e4:	6c 65 20 
  4026e7:	48 89 43 30          	mov    %rax,0x30(%rbx)
  4026eb:	48 b8 63 68 61 72 61 	movabs $0x6574636172616863,%rax
  4026f2:	63 74 65 
  4026f5:	48 89 43 38          	mov    %rax,0x38(%rbx)
  4026f9:	66 c7 43 40 72 2e    	movw   $0x2e72,0x40(%rbx)
  4026ff:	c6 43 42 00          	movb   $0x0,0x42(%rbx)
  402703:	89 ef                	mov    %ebp,%edi
  402705:	e8 46 e6 ff ff       	callq  400d50 <close@plt>
  40270a:	b8 ff ff ff ff       	mov    $0xffffffff,%eax
  40270f:	e9 ed 03 00 00       	jmpq   402b01 <submitr+0x761>
  402714:	4c 8d a4 24 40 20 00 	lea    0x2040(%rsp),%r12
  40271b:	00 
  40271c:	48 83 ec 08          	sub    $0x8,%rsp
  402720:	41 55                	push   %r13
  402722:	48 8d 84 24 50 40 00 	lea    0x4050(%rsp),%rax
  402729:	00 
  40272a:	50                   	push   %rax
  40272b:	41 56                	push   %r14
  40272d:	4d 89 f9             	mov    %r15,%r9
  402730:	4c 8b 44 24 20       	mov    0x20(%rsp),%r8
  402735:	b9 88 36 40 00       	mov    $0x403688,%ecx
  40273a:	ba 00 20 00 00       	mov    $0x2000,%edx
  40273f:	be 01 00 00 00       	mov    $0x1,%esi
  402744:	4c 89 e7             	mov    %r12,%rdi
  402747:	b8 00 00 00 00       	mov    $0x0,%eax
  40274c:	e8 4f e7 ff ff       	callq  400ea0 <__sprintf_chk@plt>
  402751:	b8 00 00 00 00       	mov    $0x0,%eax
  402756:	48 c7 c1 ff ff ff ff 	mov    $0xffffffffffffffff,%rcx
  40275d:	4c 89 e7             	mov    %r12,%rdi
  402760:	f2 ae                	repnz scas %es:(%rdi),%al
  402762:	48 f7 d1             	not    %rcx
  402765:	48 8d 51 ff          	lea    -0x1(%rcx),%rdx
  402769:	48 83 c4 20          	add    $0x20,%rsp
  40276d:	4c 89 e6             	mov    %r12,%rsi
  402770:	89 ef                	mov    %ebp,%edi
  402772:	e8 8b f9 ff ff       	callq  402102 <rio_writen>
  402777:	48 85 c0             	test   %rax,%rax
  40277a:	79 6b                	jns    4027e7 <submitr+0x447>
  40277c:	48 b8 45 72 72 6f 72 	movabs $0x43203a726f727245,%rax
  402783:	3a 20 43 
  402786:	48 89 03             	mov    %rax,(%rbx)
  402789:	48 b8 6c 69 65 6e 74 	movabs $0x6e7520746e65696c,%rax
  402790:	20 75 6e 
  402793:	48 89 43 08          	mov    %rax,0x8(%rbx)
  402797:	48 b8 61 62 6c 65 20 	movabs $0x206f7420656c6261,%rax
  40279e:	74 6f 20 
  4027a1:	48 89 43 10          	mov    %rax,0x10(%rbx)
  4027a5:	48 b8 77 72 69 74 65 	movabs $0x6f74206574697277,%rax
  4027ac:	20 74 6f 
  4027af:	48 89 43 18          	mov    %rax,0x18(%rbx)
  4027b3:	48 b8 20 74 68 65 20 	movabs $0x7475412065687420,%rax
  4027ba:	41 75 74 
  4027bd:	48 89 43 20          	mov    %rax,0x20(%rbx)
  4027c1:	48 b8 6f 6c 61 62 20 	movabs $0x7265732062616c6f,%rax
  4027c8:	73 65 72 
  4027cb:	48 89 43 28          	mov    %rax,0x28(%rbx)
  4027cf:	c7 43 30 76 65 72 00 	movl   $0x726576,0x30(%rbx)
  4027d6:	89 ef                	mov    %ebp,%edi
  4027d8:	e8 73 e5 ff ff       	callq  400d50 <close@plt>
  4027dd:	b8 ff ff ff ff       	mov    $0xffffffff,%eax
  4027e2:	e9 1a 03 00 00       	jmpq   402b01 <submitr+0x761>
  4027e7:	89 ee                	mov    %ebp,%esi
  4027e9:	48 8d 7c 24 30       	lea    0x30(%rsp),%rdi
  4027ee:	e8 cf f8 ff ff       	callq  4020c2 <rio_readinitb>
  4027f3:	ba 00 20 00 00       	mov    $0x2000,%edx
  4027f8:	48 8d b4 24 40 20 00 	lea    0x2040(%rsp),%rsi
  4027ff:	00 
  402800:	48 8d 7c 24 30       	lea    0x30(%rsp),%rdi
  402805:	e8 df f9 ff ff       	callq  4021e9 <rio_readlineb>
  40280a:	48 85 c0             	test   %rax,%rax
  40280d:	7f 7f                	jg     40288e <submitr+0x4ee>
  40280f:	48 b8 45 72 72 6f 72 	movabs $0x43203a726f727245,%rax
  402816:	3a 20 43 
  402819:	48 89 03             	mov    %rax,(%rbx)
  40281c:	48 b8 6c 69 65 6e 74 	movabs $0x6e7520746e65696c,%rax
  402823:	20 75 6e 
  402826:	48 89 43 08          	mov    %rax,0x8(%rbx)
  40282a:	48 b8 61 62 6c 65 20 	movabs $0x206f7420656c6261,%rax
  402831:	74 6f 20 
  402834:	48 89 43 10          	mov    %rax,0x10(%rbx)
  402838:	48 b8 72 65 61 64 20 	movabs $0x7269662064616572,%rax
  40283f:	66 69 72 
  402842:	48 89 43 18          	mov    %rax,0x18(%rbx)
  402846:	48 b8 73 74 20 68 65 	movabs $0x6564616568207473,%rax
  40284d:	61 64 65 
  402850:	48 89 43 20          	mov    %rax,0x20(%rbx)
  402854:	48 b8 72 20 66 72 6f 	movabs $0x41206d6f72662072,%rax
  40285b:	6d 20 41 
  40285e:	48 89 43 28          	mov    %rax,0x28(%rbx)
  402862:	48 b8 75 74 6f 6c 61 	movabs $0x732062616c6f7475,%rax
  402869:	62 20 73 
  40286c:	48 89 43 30          	mov    %rax,0x30(%rbx)
  402870:	c7 43 38 65 72 76 65 	movl   $0x65767265,0x38(%rbx)
  402877:	66 c7 43 3c 72 00    	movw   $0x72,0x3c(%rbx)
  40287d:	89 ef                	mov    %ebp,%edi
  40287f:	e8 cc e4 ff ff       	callq  400d50 <close@plt>
  402884:	b8 ff ff ff ff       	mov    $0xffffffff,%eax
  402889:	e9 73 02 00 00       	jmpq   402b01 <submitr+0x761>
  40288e:	4c 8d 84 24 40 80 00 	lea    0x8040(%rsp),%r8
  402895:	00 
  402896:	48 8d 4c 24 1c       	lea    0x1c(%rsp),%rcx
  40289b:	48 8d 94 24 40 60 00 	lea    0x6040(%rsp),%rdx
  4028a2:	00 
  4028a3:	be 1f 37 40 00       	mov    $0x40371f,%esi
  4028a8:	48 8d bc 24 40 20 00 	lea    0x2040(%rsp),%rdi
  4028af:	00 
  4028b0:	b8 00 00 00 00       	mov    $0x0,%eax
  4028b5:	e8 46 e5 ff ff       	callq  400e00 <__isoc99_sscanf@plt>
  4028ba:	e9 92 00 00 00       	jmpq   402951 <submitr+0x5b1>
  4028bf:	ba 00 20 00 00       	mov    $0x2000,%edx
  4028c4:	48 8d b4 24 40 20 00 	lea    0x2040(%rsp),%rsi
  4028cb:	00 
  4028cc:	48 8d 7c 24 30       	lea    0x30(%rsp),%rdi
  4028d1:	e8 13 f9 ff ff       	callq  4021e9 <rio_readlineb>
  4028d6:	48 85 c0             	test   %rax,%rax
  4028d9:	7f 76                	jg     402951 <submitr+0x5b1>
  4028db:	48 b8 45 72 72 6f 72 	movabs $0x43203a726f727245,%rax
  4028e2:	3a 20 43 
  4028e5:	48 89 03             	mov    %rax,(%rbx)
  4028e8:	48 b8 6c 69 65 6e 74 	movabs $0x6e7520746e65696c,%rax
  4028ef:	20 75 6e 
  4028f2:	48 89 43 08          	mov    %rax,0x8(%rbx)
  4028f6:	48 b8 61 62 6c 65 20 	movabs $0x206f7420656c6261,%rax
  4028fd:	74 6f 20 
  402900:	48 89 43 10          	mov    %rax,0x10(%rbx)
  402904:	48 b8 72 65 61 64 20 	movabs $0x6165682064616572,%rax
  40290b:	68 65 61 
  40290e:	48 89 43 18          	mov    %rax,0x18(%rbx)
  402912:	48 b8 64 65 72 73 20 	movabs $0x6f72662073726564,%rax
  402919:	66 72 6f 
  40291c:	48 89 43 20          	mov    %rax,0x20(%rbx)
  402920:	48 b8 6d 20 41 75 74 	movabs $0x616c6f747541206d,%rax
  402927:	6f 6c 61 
  40292a:	48 89 43 28          	mov    %rax,0x28(%rbx)
  40292e:	48 b8 62 20 73 65 72 	movabs $0x7265767265732062,%rax
  402935:	76 65 72 
  402938:	48 89 43 30          	mov    %rax,0x30(%rbx)
  40293c:	c6 43 38 00          	movb   $0x0,0x38(%rbx)
  402940:	89 ef                	mov    %ebp,%edi
  402942:	e8 09 e4 ff ff       	callq  400d50 <close@plt>
  402947:	b8 ff ff ff ff       	mov    $0xffffffff,%eax
  40294c:	e9 b0 01 00 00       	jmpq   402b01 <submitr+0x761>
  402951:	0f b6 94 24 40 20 00 	movzbl 0x2040(%rsp),%edx
  402958:	00 
  402959:	b8 0d 00 00 00       	mov    $0xd,%eax
  40295e:	29 d0                	sub    %edx,%eax
  402960:	75 1b                	jne    40297d <submitr+0x5dd>
  402962:	0f b6 94 24 41 20 00 	movzbl 0x2041(%rsp),%edx
  402969:	00 
  40296a:	b8 0a 00 00 00       	mov    $0xa,%eax
  40296f:	29 d0                	sub    %edx,%eax
  402971:	75 0a                	jne    40297d <submitr+0x5dd>
  402973:	0f b6 84 24 42 20 00 	movzbl 0x2042(%rsp),%eax
  40297a:	00 
  40297b:	f7 d8                	neg    %eax
  40297d:	85 c0                	test   %eax,%eax
  40297f:	0f 85 3a ff ff ff    	jne    4028bf <submitr+0x51f>
  402985:	ba 00 20 00 00       	mov    $0x2000,%edx
  40298a:	48 8d b4 24 40 20 00 	lea    0x2040(%rsp),%rsi
  402991:	00 
  402992:	48 8d 7c 24 30       	lea    0x30(%rsp),%rdi
  402997:	e8 4d f8 ff ff       	callq  4021e9 <rio_readlineb>
  40299c:	48 85 c0             	test   %rax,%rax
  40299f:	0f 8f 80 00 00 00    	jg     402a25 <submitr+0x685>
  4029a5:	48 b8 45 72 72 6f 72 	movabs $0x43203a726f727245,%rax
  4029ac:	3a 20 43 
  4029af:	48 89 03             	mov    %rax,(%rbx)
  4029b2:	48 b8 6c 69 65 6e 74 	movabs $0x6e7520746e65696c,%rax
  4029b9:	20 75 6e 
  4029bc:	48 89 43 08          	mov    %rax,0x8(%rbx)
  4029c0:	48 b8 61 62 6c 65 20 	movabs $0x206f7420656c6261,%rax
  4029c7:	74 6f 20 
  4029ca:	48 89 43 10          	mov    %rax,0x10(%rbx)
  4029ce:	48 b8 72 65 61 64 20 	movabs $0x6174732064616572,%rax
  4029d5:	73 74 61 
  4029d8:	48 89 43 18          	mov    %rax,0x18(%rbx)
  4029dc:	48 b8 74 75 73 20 6d 	movabs $0x7373656d20737574,%rax
  4029e3:	65 73 73 
  4029e6:	48 89 43 20          	mov    %rax,0x20(%rbx)
  4029ea:	48 b8 61 67 65 20 66 	movabs $0x6d6f726620656761,%rax
  4029f1:	72 6f 6d 
  4029f4:	48 89 43 28          	mov    %rax,0x28(%rbx)
  4029f8:	48 b8 20 41 75 74 6f 	movabs $0x62616c6f74754120,%rax
  4029ff:	6c 61 62 
  402a02:	48 89 43 30          	mov    %rax,0x30(%rbx)
  402a06:	48 b8 20 73 65 72 76 	movabs $0x72657672657320,%rax
  402a0d:	65 72 00 
  402a10:	48 89 43 38          	mov    %rax,0x38(%rbx)
  402a14:	89 ef                	mov    %ebp,%edi
  402a16:	e8 35 e3 ff ff       	callq  400d50 <close@plt>
  402a1b:	b8 ff ff ff ff       	mov    $0xffffffff,%eax
  402a20:	e9 dc 00 00 00       	jmpq   402b01 <submitr+0x761>
  402a25:	44 8b 44 24 1c       	mov    0x1c(%rsp),%r8d
  402a2a:	41 81 f8 c8 00 00 00 	cmp    $0xc8,%r8d
  402a31:	74 37                	je     402a6a <submitr+0x6ca>
  402a33:	4c 8d 8c 24 40 80 00 	lea    0x8040(%rsp),%r9
  402a3a:	00 
  402a3b:	b9 e8 36 40 00       	mov    $0x4036e8,%ecx
  402a40:	48 c7 c2 ff ff ff ff 	mov    $0xffffffffffffffff,%rdx
  402a47:	be 01 00 00 00       	mov    $0x1,%esi
  402a4c:	48 89 df             	mov    %rbx,%rdi
  402a4f:	b8 00 00 00 00       	mov    $0x0,%eax
  402a54:	e8 47 e4 ff ff       	callq  400ea0 <__sprintf_chk@plt>
  402a59:	89 ef                	mov    %ebp,%edi
  402a5b:	e8 f0 e2 ff ff       	callq  400d50 <close@plt>
  402a60:	b8 ff ff ff ff       	mov    $0xffffffff,%eax
  402a65:	e9 97 00 00 00       	jmpq   402b01 <submitr+0x761>
  402a6a:	48 8d b4 24 40 20 00 	lea    0x2040(%rsp),%rsi
  402a71:	00 
  402a72:	48 89 df             	mov    %rbx,%rdi
  402a75:	e8 66 e2 ff ff       	callq  400ce0 <strcpy@plt>
  402a7a:	89 ef                	mov    %ebp,%edi
  402a7c:	e8 cf e2 ff ff       	callq  400d50 <close@plt>
  402a81:	0f b6 03             	movzbl (%rbx),%eax
  402a84:	ba 4f 00 00 00       	mov    $0x4f,%edx
  402a89:	29 c2                	sub    %eax,%edx
  402a8b:	75 22                	jne    402aaf <submitr+0x70f>
  402a8d:	0f b6 4b 01          	movzbl 0x1(%rbx),%ecx
  402a91:	b8 4b 00 00 00       	mov    $0x4b,%eax
  402a96:	29 c8                	sub    %ecx,%eax
  402a98:	75 17                	jne    402ab1 <submitr+0x711>
  402a9a:	0f b6 4b 02          	movzbl 0x2(%rbx),%ecx
  402a9e:	b8 0a 00 00 00       	mov    $0xa,%eax
  402aa3:	29 c8                	sub    %ecx,%eax
  402aa5:	75 0a                	jne    402ab1 <submitr+0x711>
  402aa7:	0f b6 43 03          	movzbl 0x3(%rbx),%eax
  402aab:	f7 d8                	neg    %eax
  402aad:	eb 02                	jmp    402ab1 <submitr+0x711>
  402aaf:	89 d0                	mov    %edx,%eax
  402ab1:	85 c0                	test   %eax,%eax
  402ab3:	74 40                	je     402af5 <submitr+0x755>
  402ab5:	bf 30 37 40 00       	mov    $0x403730,%edi
  402aba:	b9 05 00 00 00       	mov    $0x5,%ecx
  402abf:	48 89 de             	mov    %rbx,%rsi
  402ac2:	f3 a6                	repz cmpsb %es:(%rdi),%ds:(%rsi)
  402ac4:	0f 97 c0             	seta   %al
  402ac7:	0f 92 c1             	setb   %cl
  402aca:	29 c8                	sub    %ecx,%eax
  402acc:	0f be c0             	movsbl %al,%eax
  402acf:	85 c0                	test   %eax,%eax
  402ad1:	74 2e                	je     402b01 <submitr+0x761>
  402ad3:	85 d2                	test   %edx,%edx
  402ad5:	75 13                	jne    402aea <submitr+0x74a>
  402ad7:	0f b6 43 01          	movzbl 0x1(%rbx),%eax
  402adb:	ba 4b 00 00 00       	mov    $0x4b,%edx
  402ae0:	29 c2                	sub    %eax,%edx
  402ae2:	75 06                	jne    402aea <submitr+0x74a>
  402ae4:	0f b6 53 02          	movzbl 0x2(%rbx),%edx
  402ae8:	f7 da                	neg    %edx
  402aea:	85 d2                	test   %edx,%edx
  402aec:	75 0e                	jne    402afc <submitr+0x75c>
  402aee:	b8 00 00 00 00       	mov    $0x0,%eax
  402af3:	eb 0c                	jmp    402b01 <submitr+0x761>
  402af5:	b8 00 00 00 00       	mov    $0x0,%eax
  402afa:	eb 05                	jmp    402b01 <submitr+0x761>
  402afc:	b8 ff ff ff ff       	mov    $0xffffffff,%eax
  402b01:	48 8b 9c 24 48 a0 00 	mov    0xa048(%rsp),%rbx
  402b08:	00 
  402b09:	64 48 33 1c 25 28 00 	xor    %fs:0x28,%rbx
  402b10:	00 00 
  402b12:	74 05                	je     402b19 <submitr+0x779>
  402b14:	e8 f7 e1 ff ff       	callq  400d10 <__stack_chk_fail@plt>
  402b19:	48 81 c4 58 a0 00 00 	add    $0xa058,%rsp
  402b20:	5b                   	pop    %rbx
  402b21:	5d                   	pop    %rbp
  402b22:	41 5c                	pop    %r12
  402b24:	41 5d                	pop    %r13
  402b26:	41 5e                	pop    %r14
  402b28:	41 5f                	pop    %r15
  402b2a:	c3                   	retq   

0000000000402b2b <init_timeout>:
  402b2b:	85 ff                	test   %edi,%edi
  402b2d:	74 23                	je     402b52 <init_timeout+0x27>
  402b2f:	53                   	push   %rbx
  402b30:	89 fb                	mov    %edi,%ebx
  402b32:	85 ff                	test   %edi,%edi
  402b34:	79 05                	jns    402b3b <init_timeout+0x10>
  402b36:	bb 00 00 00 00       	mov    $0x0,%ebx
  402b3b:	be d4 20 40 00       	mov    $0x4020d4,%esi
  402b40:	bf 0e 00 00 00       	mov    $0xe,%edi
  402b45:	e8 36 e2 ff ff       	callq  400d80 <signal@plt>
  402b4a:	89 df                	mov    %ebx,%edi
  402b4c:	e8 ef e1 ff ff       	callq  400d40 <alarm@plt>
  402b51:	5b                   	pop    %rbx
  402b52:	f3 c3                	repz retq 

0000000000402b54 <init_driver>:
  402b54:	55                   	push   %rbp
  402b55:	53                   	push   %rbx
  402b56:	48 83 ec 28          	sub    $0x28,%rsp
  402b5a:	48 89 fd             	mov    %rdi,%rbp
  402b5d:	64 48 8b 04 25 28 00 	mov    %fs:0x28,%rax
  402b64:	00 00 
  402b66:	48 89 44 24 18       	mov    %rax,0x18(%rsp)
  402b6b:	31 c0                	xor    %eax,%eax
  402b6d:	be 01 00 00 00       	mov    $0x1,%esi
  402b72:	bf 0d 00 00 00       	mov    $0xd,%edi
  402b77:	e8 04 e2 ff ff       	callq  400d80 <signal@plt>
  402b7c:	be 01 00 00 00       	mov    $0x1,%esi
  402b81:	bf 1d 00 00 00       	mov    $0x1d,%edi
  402b86:	e8 f5 e1 ff ff       	callq  400d80 <signal@plt>
  402b8b:	be 01 00 00 00       	mov    $0x1,%esi
  402b90:	bf 1d 00 00 00       	mov    $0x1d,%edi
  402b95:	e8 e6 e1 ff ff       	callq  400d80 <signal@plt>
  402b9a:	ba 00 00 00 00       	mov    $0x0,%edx
  402b9f:	be 01 00 00 00       	mov    $0x1,%esi
  402ba4:	bf 02 00 00 00       	mov    $0x2,%edi
  402ba9:	e8 02 e3 ff ff       	callq  400eb0 <socket@plt>
  402bae:	85 c0                	test   %eax,%eax
  402bb0:	79 4f                	jns    402c01 <init_driver+0xad>
  402bb2:	48 b8 45 72 72 6f 72 	movabs $0x43203a726f727245,%rax
  402bb9:	3a 20 43 
  402bbc:	48 89 45 00          	mov    %rax,0x0(%rbp)
  402bc0:	48 b8 6c 69 65 6e 74 	movabs $0x6e7520746e65696c,%rax
  402bc7:	20 75 6e 
  402bca:	48 89 45 08          	mov    %rax,0x8(%rbp)
  402bce:	48 b8 61 62 6c 65 20 	movabs $0x206f7420656c6261,%rax
  402bd5:	74 6f 20 
  402bd8:	48 89 45 10          	mov    %rax,0x10(%rbp)
  402bdc:	48 b8 63 72 65 61 74 	movabs $0x7320657461657263,%rax
  402be3:	65 20 73 
  402be6:	48 89 45 18          	mov    %rax,0x18(%rbp)
  402bea:	c7 45 20 6f 63 6b 65 	movl   $0x656b636f,0x20(%rbp)
  402bf1:	66 c7 45 24 74 00    	movw   $0x74,0x24(%rbp)
  402bf7:	b8 ff ff ff ff       	mov    $0xffffffff,%eax
  402bfc:	e9 2a 01 00 00       	jmpq   402d2b <init_driver+0x1d7>
  402c01:	89 c3                	mov    %eax,%ebx
  402c03:	bf 55 32 40 00       	mov    $0x403255,%edi
  402c08:	e8 83 e1 ff ff       	callq  400d90 <gethostbyname@plt>
  402c0d:	48 85 c0             	test   %rax,%rax
  402c10:	75 68                	jne    402c7a <init_driver+0x126>
  402c12:	48 b8 45 72 72 6f 72 	movabs $0x44203a726f727245,%rax
  402c19:	3a 20 44 
  402c1c:	48 89 45 00          	mov    %rax,0x0(%rbp)
  402c20:	48 b8 4e 53 20 69 73 	movabs $0x6e7520736920534e,%rax
  402c27:	20 75 6e 
  402c2a:	48 89 45 08          	mov    %rax,0x8(%rbp)
  402c2e:	48 b8 61 62 6c 65 20 	movabs $0x206f7420656c6261,%rax
  402c35:	74 6f 20 
  402c38:	48 89 45 10          	mov    %rax,0x10(%rbp)
  402c3c:	48 b8 72 65 73 6f 6c 	movabs $0x2065766c6f736572,%rax
  402c43:	76 65 20 
  402c46:	48 89 45 18          	mov    %rax,0x18(%rbp)
  402c4a:	48 b8 73 65 72 76 65 	movabs $0x6120726576726573,%rax
  402c51:	72 20 61 
  402c54:	48 89 45 20          	mov    %rax,0x20(%rbp)
  402c58:	c7 45 28 64 64 72 65 	movl   $0x65726464,0x28(%rbp)
  402c5f:	66 c7 45 2c 73 73    	movw   $0x7373,0x2c(%rbp)
  402c65:	c6 45 2e 00          	movb   $0x0,0x2e(%rbp)
  402c69:	89 df                	mov    %ebx,%edi
  402c6b:	e8 e0 e0 ff ff       	callq  400d50 <close@plt>
  402c70:	b8 ff ff ff ff       	mov    $0xffffffff,%eax
  402c75:	e9 b1 00 00 00       	jmpq   402d2b <init_driver+0x1d7>
  402c7a:	48 c7 04 24 00 00 00 	movq   $0x0,(%rsp)
  402c81:	00 
  402c82:	48 c7 44 24 08 00 00 	movq   $0x0,0x8(%rsp)
  402c89:	00 00 
  402c8b:	66 c7 04 24 02 00    	movw   $0x2,(%rsp)
  402c91:	48 63 50 14          	movslq 0x14(%rax),%rdx
  402c95:	48 8b 40 18          	mov    0x18(%rax),%rax
  402c99:	48 8b 30             	mov    (%rax),%rsi
  402c9c:	48 8d 7c 24 04       	lea    0x4(%rsp),%rdi
  402ca1:	b9 0c 00 00 00       	mov    $0xc,%ecx
  402ca6:	e8 f5 e0 ff ff       	callq  400da0 <__memmove_chk@plt>
  402cab:	66 c7 44 24 02 00 50 	movw   $0x5000,0x2(%rsp)
  402cb2:	ba 10 00 00 00       	mov    $0x10,%edx
  402cb7:	48 89 e6             	mov    %rsp,%rsi
  402cba:	89 df                	mov    %ebx,%edi
  402cbc:	e8 bf e1 ff ff       	callq  400e80 <connect@plt>
  402cc1:	85 c0                	test   %eax,%eax
  402cc3:	79 50                	jns    402d15 <init_driver+0x1c1>
  402cc5:	48 b8 45 72 72 6f 72 	movabs $0x55203a726f727245,%rax
  402ccc:	3a 20 55 
  402ccf:	48 89 45 00          	mov    %rax,0x0(%rbp)
  402cd3:	48 b8 6e 61 62 6c 65 	movabs $0x6f7420656c62616e,%rax
  402cda:	20 74 6f 
  402cdd:	48 89 45 08          	mov    %rax,0x8(%rbp)
  402ce1:	48 b8 20 63 6f 6e 6e 	movabs $0x7463656e6e6f6320,%rax
  402ce8:	65 63 74 
  402ceb:	48 89 45 10          	mov    %rax,0x10(%rbp)
  402cef:	48 b8 20 74 6f 20 73 	movabs $0x76726573206f7420,%rax
  402cf6:	65 72 76 
  402cf9:	48 89 45 18          	mov    %rax,0x18(%rbp)
  402cfd:	66 c7 45 20 65 72    	movw   $0x7265,0x20(%rbp)
  402d03:	c6 45 22 00          	movb   $0x0,0x22(%rbp)
  402d07:	89 df                	mov    %ebx,%edi
  402d09:	e8 42 e0 ff ff       	callq  400d50 <close@plt>
  402d0e:	b8 ff ff ff ff       	mov    $0xffffffff,%eax
  402d13:	eb 16                	jmp    402d2b <init_driver+0x1d7>
  402d15:	89 df                	mov    %ebx,%edi
  402d17:	e8 34 e0 ff ff       	callq  400d50 <close@plt>
  402d1c:	66 c7 45 00 4f 4b    	movw   $0x4b4f,0x0(%rbp)
  402d22:	c6 45 02 00          	movb   $0x0,0x2(%rbp)
  402d26:	b8 00 00 00 00       	mov    $0x0,%eax
  402d2b:	48 8b 4c 24 18       	mov    0x18(%rsp),%rcx
  402d30:	64 48 33 0c 25 28 00 	xor    %fs:0x28,%rcx
  402d37:	00 00 
  402d39:	74 05                	je     402d40 <init_driver+0x1ec>
  402d3b:	e8 d0 df ff ff       	callq  400d10 <__stack_chk_fail@plt>
  402d40:	48 83 c4 28          	add    $0x28,%rsp
  402d44:	5b                   	pop    %rbx
  402d45:	5d                   	pop    %rbp
  402d46:	c3                   	retq   

0000000000402d47 <driver_post>:
  402d47:	53                   	push   %rbx
  402d48:	4c 89 cb             	mov    %r9,%rbx
  402d4b:	45 85 c0             	test   %r8d,%r8d
  402d4e:	74 27                	je     402d77 <driver_post+0x30>
  402d50:	48 89 ca             	mov    %rcx,%rdx
  402d53:	be 35 37 40 00       	mov    $0x403735,%esi
  402d58:	bf 01 00 00 00       	mov    $0x1,%edi
  402d5d:	b8 00 00 00 00       	mov    $0x0,%eax
  402d62:	e8 b9 e0 ff ff       	callq  400e20 <__printf_chk@plt>
  402d67:	66 c7 03 4f 4b       	movw   $0x4b4f,(%rbx)
  402d6c:	c6 43 02 00          	movb   $0x0,0x2(%rbx)
  402d70:	b8 00 00 00 00       	mov    $0x0,%eax
  402d75:	eb 3f                	jmp    402db6 <driver_post+0x6f>
  402d77:	48 85 ff             	test   %rdi,%rdi
  402d7a:	74 2c                	je     402da8 <driver_post+0x61>
  402d7c:	80 3f 00             	cmpb   $0x0,(%rdi)
  402d7f:	74 27                	je     402da8 <driver_post+0x61>
  402d81:	48 83 ec 08          	sub    $0x8,%rsp
  402d85:	41 51                	push   %r9
  402d87:	49 89 c9             	mov    %rcx,%r9
  402d8a:	49 89 d0             	mov    %rdx,%r8
  402d8d:	48 89 f9             	mov    %rdi,%rcx
  402d90:	48 89 f2             	mov    %rsi,%rdx
  402d93:	be 50 00 00 00       	mov    $0x50,%esi
  402d98:	bf 55 32 40 00       	mov    $0x403255,%edi
  402d9d:	e8 fe f5 ff ff       	callq  4023a0 <submitr>
  402da2:	48 83 c4 10          	add    $0x10,%rsp
  402da6:	eb 0e                	jmp    402db6 <driver_post+0x6f>
  402da8:	66 c7 03 4f 4b       	movw   $0x4b4f,(%rbx)
  402dad:	c6 43 02 00          	movb   $0x0,0x2(%rbx)
  402db1:	b8 00 00 00 00       	mov    $0x0,%eax
  402db6:	5b                   	pop    %rbx
  402db7:	c3                   	retq   

0000000000402db8 <check>:
  402db8:	89 f8                	mov    %edi,%eax
  402dba:	c1 e8 1c             	shr    $0x1c,%eax
  402dbd:	85 c0                	test   %eax,%eax
  402dbf:	74 1d                	je     402dde <check+0x26>
  402dc1:	b9 00 00 00 00       	mov    $0x0,%ecx
  402dc6:	eb 0b                	jmp    402dd3 <check+0x1b>
  402dc8:	89 f8                	mov    %edi,%eax
  402dca:	d3 e8                	shr    %cl,%eax
  402dcc:	3c 0a                	cmp    $0xa,%al
  402dce:	74 14                	je     402de4 <check+0x2c>
  402dd0:	83 c1 08             	add    $0x8,%ecx
  402dd3:	83 f9 1f             	cmp    $0x1f,%ecx
  402dd6:	7e f0                	jle    402dc8 <check+0x10>
  402dd8:	b8 01 00 00 00       	mov    $0x1,%eax
  402ddd:	c3                   	retq   
  402dde:	b8 00 00 00 00       	mov    $0x0,%eax
  402de3:	c3                   	retq   
  402de4:	b8 00 00 00 00       	mov    $0x0,%eax
  402de9:	c3                   	retq   

0000000000402dea <gencookie>:
  402dea:	53                   	push   %rbx
  402deb:	83 c7 01             	add    $0x1,%edi
  402dee:	e8 cd de ff ff       	callq  400cc0 <srandom@plt>
  402df3:	e8 e8 df ff ff       	callq  400de0 <random@plt>
  402df8:	89 c3                	mov    %eax,%ebx
  402dfa:	89 c7                	mov    %eax,%edi
  402dfc:	e8 b7 ff ff ff       	callq  402db8 <check>
  402e01:	85 c0                	test   %eax,%eax
  402e03:	74 ee                	je     402df3 <gencookie+0x9>
  402e05:	89 d8                	mov    %ebx,%eax
  402e07:	5b                   	pop    %rbx
  402e08:	c3                   	retq   
  402e09:	0f 1f 80 00 00 00 00 	nopl   0x0(%rax)

0000000000402e10 <__libc_csu_init>:
  402e10:	41 57                	push   %r15
  402e12:	41 56                	push   %r14
  402e14:	41 89 ff             	mov    %edi,%r15d
  402e17:	41 55                	push   %r13
  402e19:	41 54                	push   %r12
  402e1b:	4c 8d 25 de 1f 20 00 	lea    0x201fde(%rip),%r12        # 604e00 <__frame_dummy_init_array_entry>
  402e22:	55                   	push   %rbp
  402e23:	48 8d 2d de 1f 20 00 	lea    0x201fde(%rip),%rbp        # 604e08 <__init_array_end>
  402e2a:	53                   	push   %rbx
  402e2b:	49 89 f6             	mov    %rsi,%r14
  402e2e:	49 89 d5             	mov    %rdx,%r13
  402e31:	4c 29 e5             	sub    %r12,%rbp
  402e34:	48 83 ec 08          	sub    $0x8,%rsp
  402e38:	48 c1 fd 03          	sar    $0x3,%rbp
  402e3c:	e8 27 de ff ff       	callq  400c68 <_init>
  402e41:	48 85 ed             	test   %rbp,%rbp
  402e44:	74 20                	je     402e66 <__libc_csu_init+0x56>
  402e46:	31 db                	xor    %ebx,%ebx
  402e48:	0f 1f 84 00 00 00 00 	nopl   0x0(%rax,%rax,1)
  402e4f:	00 
  402e50:	4c 89 ea             	mov    %r13,%rdx
  402e53:	4c 89 f6             	mov    %r14,%rsi
  402e56:	44 89 ff             	mov    %r15d,%edi
  402e59:	41 ff 14 dc          	callq  *(%r12,%rbx,8)
  402e5d:	48 83 c3 01          	add    $0x1,%rbx
  402e61:	48 39 eb             	cmp    %rbp,%rbx
  402e64:	75 ea                	jne    402e50 <__libc_csu_init+0x40>
  402e66:	48 83 c4 08          	add    $0x8,%rsp
  402e6a:	5b                   	pop    %rbx
  402e6b:	5d                   	pop    %rbp
  402e6c:	41 5c                	pop    %r12
  402e6e:	41 5d                	pop    %r13
  402e70:	41 5e                	pop    %r14
  402e72:	41 5f                	pop    %r15
  402e74:	c3                   	retq   
  402e75:	90                   	nop
  402e76:	66 2e 0f 1f 84 00 00 	nopw   %cs:0x0(%rax,%rax,1)
  402e7d:	00 00 00 

0000000000402e80 <__libc_csu_fini>:
  402e80:	f3 c3                	repz retq 

Disassembly of section .fini:

0000000000402e84 <_fini>:
  402e84:	48 83 ec 08          	sub    $0x8,%rsp
  402e88:	48 83 c4 08          	add    $0x8,%rsp
  402e8c:	c3                   	retq   
