
rtarget:     file format elf64-x86-64


Disassembly of section .init:

0000000000400c68 <_init>:
  400c68:	48 83 ec 08          	sub    $0x8,%rsp
  400c6c:	48 8b 05 85 43 20 00 	mov    0x204385(%rip),%rax        # 604ff8 <_DYNAMIC+0x1e0>
  400c73:	48 85 c0             	test   %rax,%rax
  400c76:	74 05                	je     400c7d <_init+0x15>
  400c78:	e8 43 02 00 00       	callq  400ec0 <socket@plt+0x10>
  400c7d:	48 83 c4 08          	add    $0x8,%rsp
  400c81:	c3                   	retq   

Disassembly of section .plt:

0000000000400c90 <strcasecmp@plt-0x10>:
  400c90:	ff 35 72 43 20 00    	pushq  0x204372(%rip)        # 605008 <_GLOBAL_OFFSET_TABLE_+0x8>
  400c96:	ff 25 74 43 20 00    	jmpq   *0x204374(%rip)        # 605010 <_GLOBAL_OFFSET_TABLE_+0x10>
  400c9c:	0f 1f 40 00          	nopl   0x0(%rax)

0000000000400ca0 <strcasecmp@plt>:
  400ca0:	ff 25 72 43 20 00    	jmpq   *0x204372(%rip)        # 605018 <_GLOBAL_OFFSET_TABLE_+0x18>
  400ca6:	68 00 00 00 00       	pushq  $0x0
  400cab:	e9 e0 ff ff ff       	jmpq   400c90 <_init+0x28>

0000000000400cb0 <__errno_location@plt>:
  400cb0:	ff 25 6a 43 20 00    	jmpq   *0x20436a(%rip)        # 605020 <_GLOBAL_OFFSET_TABLE_+0x20>
  400cb6:	68 01 00 00 00       	pushq  $0x1
  400cbb:	e9 d0 ff ff ff       	jmpq   400c90 <_init+0x28>

0000000000400cc0 <srandom@plt>:
  400cc0:	ff 25 62 43 20 00    	jmpq   *0x204362(%rip)        # 605028 <_GLOBAL_OFFSET_TABLE_+0x28>
  400cc6:	68 02 00 00 00       	pushq  $0x2
  400ccb:	e9 c0 ff ff ff       	jmpq   400c90 <_init+0x28>

0000000000400cd0 <strncmp@plt>:
  400cd0:	ff 25 5a 43 20 00    	jmpq   *0x20435a(%rip)        # 605030 <_GLOBAL_OFFSET_TABLE_+0x30>
  400cd6:	68 03 00 00 00       	pushq  $0x3
  400cdb:	e9 b0 ff ff ff       	jmpq   400c90 <_init+0x28>

0000000000400ce0 <strcpy@plt>:
  400ce0:	ff 25 52 43 20 00    	jmpq   *0x204352(%rip)        # 605038 <_GLOBAL_OFFSET_TABLE_+0x38>
  400ce6:	68 04 00 00 00       	pushq  $0x4
  400ceb:	e9 a0 ff ff ff       	jmpq   400c90 <_init+0x28>

0000000000400cf0 <puts@plt>:
  400cf0:	ff 25 4a 43 20 00    	jmpq   *0x20434a(%rip)        # 605040 <_GLOBAL_OFFSET_TABLE_+0x40>
  400cf6:	68 05 00 00 00       	pushq  $0x5
  400cfb:	e9 90 ff ff ff       	jmpq   400c90 <_init+0x28>

0000000000400d00 <write@plt>:
  400d00:	ff 25 42 43 20 00    	jmpq   *0x204342(%rip)        # 605048 <_GLOBAL_OFFSET_TABLE_+0x48>
  400d06:	68 06 00 00 00       	pushq  $0x6
  400d0b:	e9 80 ff ff ff       	jmpq   400c90 <_init+0x28>

0000000000400d10 <__stack_chk_fail@plt>:
  400d10:	ff 25 3a 43 20 00    	jmpq   *0x20433a(%rip)        # 605050 <_GLOBAL_OFFSET_TABLE_+0x50>
  400d16:	68 07 00 00 00       	pushq  $0x7
  400d1b:	e9 70 ff ff ff       	jmpq   400c90 <_init+0x28>

0000000000400d20 <mmap@plt>:
  400d20:	ff 25 32 43 20 00    	jmpq   *0x204332(%rip)        # 605058 <_GLOBAL_OFFSET_TABLE_+0x58>
  400d26:	68 08 00 00 00       	pushq  $0x8
  400d2b:	e9 60 ff ff ff       	jmpq   400c90 <_init+0x28>

0000000000400d30 <memset@plt>:
  400d30:	ff 25 2a 43 20 00    	jmpq   *0x20432a(%rip)        # 605060 <_GLOBAL_OFFSET_TABLE_+0x60>
  400d36:	68 09 00 00 00       	pushq  $0x9
  400d3b:	e9 50 ff ff ff       	jmpq   400c90 <_init+0x28>

0000000000400d40 <alarm@plt>:
  400d40:	ff 25 22 43 20 00    	jmpq   *0x204322(%rip)        # 605068 <_GLOBAL_OFFSET_TABLE_+0x68>
  400d46:	68 0a 00 00 00       	pushq  $0xa
  400d4b:	e9 40 ff ff ff       	jmpq   400c90 <_init+0x28>

0000000000400d50 <close@plt>:
  400d50:	ff 25 1a 43 20 00    	jmpq   *0x20431a(%rip)        # 605070 <_GLOBAL_OFFSET_TABLE_+0x70>
  400d56:	68 0b 00 00 00       	pushq  $0xb
  400d5b:	e9 30 ff ff ff       	jmpq   400c90 <_init+0x28>

0000000000400d60 <read@plt>:
  400d60:	ff 25 12 43 20 00    	jmpq   *0x204312(%rip)        # 605078 <_GLOBAL_OFFSET_TABLE_+0x78>
  400d66:	68 0c 00 00 00       	pushq  $0xc
  400d6b:	e9 20 ff ff ff       	jmpq   400c90 <_init+0x28>

0000000000400d70 <__libc_start_main@plt>:
  400d70:	ff 25 0a 43 20 00    	jmpq   *0x20430a(%rip)        # 605080 <_GLOBAL_OFFSET_TABLE_+0x80>
  400d76:	68 0d 00 00 00       	pushq  $0xd
  400d7b:	e9 10 ff ff ff       	jmpq   400c90 <_init+0x28>

0000000000400d80 <signal@plt>:
  400d80:	ff 25 02 43 20 00    	jmpq   *0x204302(%rip)        # 605088 <_GLOBAL_OFFSET_TABLE_+0x88>
  400d86:	68 0e 00 00 00       	pushq  $0xe
  400d8b:	e9 00 ff ff ff       	jmpq   400c90 <_init+0x28>

0000000000400d90 <gethostbyname@plt>:
  400d90:	ff 25 fa 42 20 00    	jmpq   *0x2042fa(%rip)        # 605090 <_GLOBAL_OFFSET_TABLE_+0x90>
  400d96:	68 0f 00 00 00       	pushq  $0xf
  400d9b:	e9 f0 fe ff ff       	jmpq   400c90 <_init+0x28>

0000000000400da0 <__memmove_chk@plt>:
  400da0:	ff 25 f2 42 20 00    	jmpq   *0x2042f2(%rip)        # 605098 <_GLOBAL_OFFSET_TABLE_+0x98>
  400da6:	68 10 00 00 00       	pushq  $0x10
  400dab:	e9 e0 fe ff ff       	jmpq   400c90 <_init+0x28>

0000000000400db0 <strtol@plt>:
  400db0:	ff 25 ea 42 20 00    	jmpq   *0x2042ea(%rip)        # 6050a0 <_GLOBAL_OFFSET_TABLE_+0xa0>
  400db6:	68 11 00 00 00       	pushq  $0x11
  400dbb:	e9 d0 fe ff ff       	jmpq   400c90 <_init+0x28>

0000000000400dc0 <memcpy@plt>:
  400dc0:	ff 25 e2 42 20 00    	jmpq   *0x2042e2(%rip)        # 6050a8 <_GLOBAL_OFFSET_TABLE_+0xa8>
  400dc6:	68 12 00 00 00       	pushq  $0x12
  400dcb:	e9 c0 fe ff ff       	jmpq   400c90 <_init+0x28>

0000000000400dd0 <time@plt>:
  400dd0:	ff 25 da 42 20 00    	jmpq   *0x2042da(%rip)        # 6050b0 <_GLOBAL_OFFSET_TABLE_+0xb0>
  400dd6:	68 13 00 00 00       	pushq  $0x13
  400ddb:	e9 b0 fe ff ff       	jmpq   400c90 <_init+0x28>

0000000000400de0 <random@plt>:
  400de0:	ff 25 d2 42 20 00    	jmpq   *0x2042d2(%rip)        # 6050b8 <_GLOBAL_OFFSET_TABLE_+0xb8>
  400de6:	68 14 00 00 00       	pushq  $0x14
  400deb:	e9 a0 fe ff ff       	jmpq   400c90 <_init+0x28>

0000000000400df0 <_IO_getc@plt>:
  400df0:	ff 25 ca 42 20 00    	jmpq   *0x2042ca(%rip)        # 6050c0 <_GLOBAL_OFFSET_TABLE_+0xc0>
  400df6:	68 15 00 00 00       	pushq  $0x15
  400dfb:	e9 90 fe ff ff       	jmpq   400c90 <_init+0x28>

0000000000400e00 <__isoc99_sscanf@plt>:
  400e00:	ff 25 c2 42 20 00    	jmpq   *0x2042c2(%rip)        # 6050c8 <_GLOBAL_OFFSET_TABLE_+0xc8>
  400e06:	68 16 00 00 00       	pushq  $0x16
  400e0b:	e9 80 fe ff ff       	jmpq   400c90 <_init+0x28>

0000000000400e10 <munmap@plt>:
  400e10:	ff 25 ba 42 20 00    	jmpq   *0x2042ba(%rip)        # 6050d0 <_GLOBAL_OFFSET_TABLE_+0xd0>
  400e16:	68 17 00 00 00       	pushq  $0x17
  400e1b:	e9 70 fe ff ff       	jmpq   400c90 <_init+0x28>

0000000000400e20 <__printf_chk@plt>:
  400e20:	ff 25 b2 42 20 00    	jmpq   *0x2042b2(%rip)        # 6050d8 <_GLOBAL_OFFSET_TABLE_+0xd8>
  400e26:	68 18 00 00 00       	pushq  $0x18
  400e2b:	e9 60 fe ff ff       	jmpq   400c90 <_init+0x28>

0000000000400e30 <fopen@plt>:
  400e30:	ff 25 aa 42 20 00    	jmpq   *0x2042aa(%rip)        # 6050e0 <_GLOBAL_OFFSET_TABLE_+0xe0>
  400e36:	68 19 00 00 00       	pushq  $0x19
  400e3b:	e9 50 fe ff ff       	jmpq   400c90 <_init+0x28>

0000000000400e40 <getopt@plt>:
  400e40:	ff 25 a2 42 20 00    	jmpq   *0x2042a2(%rip)        # 6050e8 <_GLOBAL_OFFSET_TABLE_+0xe8>
  400e46:	68 1a 00 00 00       	pushq  $0x1a
  400e4b:	e9 40 fe ff ff       	jmpq   400c90 <_init+0x28>

0000000000400e50 <strtoul@plt>:
  400e50:	ff 25 9a 42 20 00    	jmpq   *0x20429a(%rip)        # 6050f0 <_GLOBAL_OFFSET_TABLE_+0xf0>
  400e56:	68 1b 00 00 00       	pushq  $0x1b
  400e5b:	e9 30 fe ff ff       	jmpq   400c90 <_init+0x28>

0000000000400e60 <gethostname@plt>:
  400e60:	ff 25 92 42 20 00    	jmpq   *0x204292(%rip)        # 6050f8 <_GLOBAL_OFFSET_TABLE_+0xf8>
  400e66:	68 1c 00 00 00       	pushq  $0x1c
  400e6b:	e9 20 fe ff ff       	jmpq   400c90 <_init+0x28>

0000000000400e70 <exit@plt>:
  400e70:	ff 25 8a 42 20 00    	jmpq   *0x20428a(%rip)        # 605100 <_GLOBAL_OFFSET_TABLE_+0x100>
  400e76:	68 1d 00 00 00       	pushq  $0x1d
  400e7b:	e9 10 fe ff ff       	jmpq   400c90 <_init+0x28>

0000000000400e80 <connect@plt>:
  400e80:	ff 25 82 42 20 00    	jmpq   *0x204282(%rip)        # 605108 <_GLOBAL_OFFSET_TABLE_+0x108>
  400e86:	68 1e 00 00 00       	pushq  $0x1e
  400e8b:	e9 00 fe ff ff       	jmpq   400c90 <_init+0x28>

0000000000400e90 <__fprintf_chk@plt>:
  400e90:	ff 25 7a 42 20 00    	jmpq   *0x20427a(%rip)        # 605110 <_GLOBAL_OFFSET_TABLE_+0x110>
  400e96:	68 1f 00 00 00       	pushq  $0x1f
  400e9b:	e9 f0 fd ff ff       	jmpq   400c90 <_init+0x28>

0000000000400ea0 <__sprintf_chk@plt>:
  400ea0:	ff 25 72 42 20 00    	jmpq   *0x204272(%rip)        # 605118 <_GLOBAL_OFFSET_TABLE_+0x118>
  400ea6:	68 20 00 00 00       	pushq  $0x20
  400eab:	e9 e0 fd ff ff       	jmpq   400c90 <_init+0x28>

0000000000400eb0 <socket@plt>:
  400eb0:	ff 25 6a 42 20 00    	jmpq   *0x20426a(%rip)        # 605120 <_GLOBAL_OFFSET_TABLE_+0x120>
  400eb6:	68 21 00 00 00       	pushq  $0x21
  400ebb:	e9 d0 fd ff ff       	jmpq   400c90 <_init+0x28>

Disassembly of section .plt.got:

0000000000400ec0 <.plt.got>:
  400ec0:	ff 25 32 41 20 00    	jmpq   *0x204132(%rip)        # 604ff8 <_DYNAMIC+0x1e0>
  400ec6:	66 90                	xchg   %ax,%ax

Disassembly of section .text:

0000000000400ed0 <_start>:
  400ed0:	31 ed                	xor    %ebp,%ebp
  400ed2:	49 89 d1             	mov    %rdx,%r9
  400ed5:	5e                   	pop    %rsi
  400ed6:	48 89 e2             	mov    %rsp,%rdx
  400ed9:	48 83 e4 f0          	and    $0xfffffffffffffff0,%rsp
  400edd:	50                   	push   %rax
  400ede:	54                   	push   %rsp
  400edf:	49 c7 c0 a0 2f 40 00 	mov    $0x402fa0,%r8
  400ee6:	48 c7 c1 30 2f 40 00 	mov    $0x402f30,%rcx
  400eed:	48 c7 c7 d5 11 40 00 	mov    $0x4011d5,%rdi
  400ef4:	e8 77 fe ff ff       	callq  400d70 <__libc_start_main@plt>
  400ef9:	f4                   	hlt    
  400efa:	66 0f 1f 44 00 00    	nopw   0x0(%rax,%rax,1)

0000000000400f00 <deregister_tm_clones>:
  400f00:	b8 b7 54 60 00       	mov    $0x6054b7,%eax
  400f05:	55                   	push   %rbp
  400f06:	48 2d b0 54 60 00    	sub    $0x6054b0,%rax
  400f0c:	48 83 f8 0e          	cmp    $0xe,%rax
  400f10:	48 89 e5             	mov    %rsp,%rbp
  400f13:	76 1b                	jbe    400f30 <deregister_tm_clones+0x30>
  400f15:	b8 00 00 00 00       	mov    $0x0,%eax
  400f1a:	48 85 c0             	test   %rax,%rax
  400f1d:	74 11                	je     400f30 <deregister_tm_clones+0x30>
  400f1f:	5d                   	pop    %rbp
  400f20:	bf b0 54 60 00       	mov    $0x6054b0,%edi
  400f25:	ff e0                	jmpq   *%rax
  400f27:	66 0f 1f 84 00 00 00 	nopw   0x0(%rax,%rax,1)
  400f2e:	00 00 
  400f30:	5d                   	pop    %rbp
  400f31:	c3                   	retq   
  400f32:	0f 1f 40 00          	nopl   0x0(%rax)
  400f36:	66 2e 0f 1f 84 00 00 	nopw   %cs:0x0(%rax,%rax,1)
  400f3d:	00 00 00 

0000000000400f40 <register_tm_clones>:
  400f40:	be b0 54 60 00       	mov    $0x6054b0,%esi
  400f45:	55                   	push   %rbp
  400f46:	48 81 ee b0 54 60 00 	sub    $0x6054b0,%rsi
  400f4d:	48 c1 fe 03          	sar    $0x3,%rsi
  400f51:	48 89 e5             	mov    %rsp,%rbp
  400f54:	48 89 f0             	mov    %rsi,%rax
  400f57:	48 c1 e8 3f          	shr    $0x3f,%rax
  400f5b:	48 01 c6             	add    %rax,%rsi
  400f5e:	48 d1 fe             	sar    %rsi
  400f61:	74 15                	je     400f78 <register_tm_clones+0x38>
  400f63:	b8 00 00 00 00       	mov    $0x0,%eax
  400f68:	48 85 c0             	test   %rax,%rax
  400f6b:	74 0b                	je     400f78 <register_tm_clones+0x38>
  400f6d:	5d                   	pop    %rbp
  400f6e:	bf b0 54 60 00       	mov    $0x6054b0,%edi
  400f73:	ff e0                	jmpq   *%rax
  400f75:	0f 1f 00             	nopl   (%rax)
  400f78:	5d                   	pop    %rbp
  400f79:	c3                   	retq   
  400f7a:	66 0f 1f 44 00 00    	nopw   0x0(%rax,%rax,1)

0000000000400f80 <__do_global_dtors_aux>:
  400f80:	80 3d 61 45 20 00 00 	cmpb   $0x0,0x204561(%rip)        # 6054e8 <completed.7585>
  400f87:	75 11                	jne    400f9a <__do_global_dtors_aux+0x1a>
  400f89:	55                   	push   %rbp
  400f8a:	48 89 e5             	mov    %rsp,%rbp
  400f8d:	e8 6e ff ff ff       	callq  400f00 <deregister_tm_clones>
  400f92:	5d                   	pop    %rbp
  400f93:	c6 05 4e 45 20 00 01 	movb   $0x1,0x20454e(%rip)        # 6054e8 <completed.7585>
  400f9a:	f3 c3                	repz retq 
  400f9c:	0f 1f 40 00          	nopl   0x0(%rax)

0000000000400fa0 <frame_dummy>:
  400fa0:	bf 10 4e 60 00       	mov    $0x604e10,%edi
  400fa5:	48 83 3f 00          	cmpq   $0x0,(%rdi)
  400fa9:	75 05                	jne    400fb0 <frame_dummy+0x10>
  400fab:	eb 93                	jmp    400f40 <register_tm_clones>
  400fad:	0f 1f 00             	nopl   (%rax)
  400fb0:	b8 00 00 00 00       	mov    $0x0,%eax
  400fb5:	48 85 c0             	test   %rax,%rax
  400fb8:	74 f1                	je     400fab <frame_dummy+0xb>
  400fba:	55                   	push   %rbp
  400fbb:	48 89 e5             	mov    %rsp,%rbp
  400fbe:	ff d0                	callq  *%rax
  400fc0:	5d                   	pop    %rbp
  400fc1:	e9 7a ff ff ff       	jmpq   400f40 <register_tm_clones>

0000000000400fc6 <usage>:
  400fc6:	48 83 ec 08          	sub    $0x8,%rsp
  400fca:	48 89 fa             	mov    %rdi,%rdx
  400fcd:	83 3d 54 45 20 00 00 	cmpl   $0x0,0x204554(%rip)        # 605528 <is_checker>
  400fd4:	74 3e                	je     401014 <usage+0x4e>
  400fd6:	be b8 2f 40 00       	mov    $0x402fb8,%esi
  400fdb:	bf 01 00 00 00       	mov    $0x1,%edi
  400fe0:	b8 00 00 00 00       	mov    $0x0,%eax
  400fe5:	e8 36 fe ff ff       	callq  400e20 <__printf_chk@plt>
  400fea:	bf f0 2f 40 00       	mov    $0x402ff0,%edi
  400fef:	e8 fc fc ff ff       	callq  400cf0 <puts@plt>
  400ff4:	bf 68 31 40 00       	mov    $0x403168,%edi
  400ff9:	e8 f2 fc ff ff       	callq  400cf0 <puts@plt>
  400ffe:	bf 18 30 40 00       	mov    $0x403018,%edi
  401003:	e8 e8 fc ff ff       	callq  400cf0 <puts@plt>
  401008:	bf 82 31 40 00       	mov    $0x403182,%edi
  40100d:	e8 de fc ff ff       	callq  400cf0 <puts@plt>
  401012:	eb 32                	jmp    401046 <usage+0x80>
  401014:	be 9e 31 40 00       	mov    $0x40319e,%esi
  401019:	bf 01 00 00 00       	mov    $0x1,%edi
  40101e:	b8 00 00 00 00       	mov    $0x0,%eax
  401023:	e8 f8 fd ff ff       	callq  400e20 <__printf_chk@plt>
  401028:	bf 40 30 40 00       	mov    $0x403040,%edi
  40102d:	e8 be fc ff ff       	callq  400cf0 <puts@plt>
  401032:	bf 68 30 40 00       	mov    $0x403068,%edi
  401037:	e8 b4 fc ff ff       	callq  400cf0 <puts@plt>
  40103c:	bf bc 31 40 00       	mov    $0x4031bc,%edi
  401041:	e8 aa fc ff ff       	callq  400cf0 <puts@plt>
  401046:	bf 00 00 00 00       	mov    $0x0,%edi
  40104b:	e8 20 fe ff ff       	callq  400e70 <exit@plt>

0000000000401050 <initialize_target>:
  401050:	55                   	push   %rbp
  401051:	53                   	push   %rbx
  401052:	48 81 ec 18 21 00 00 	sub    $0x2118,%rsp
  401059:	89 f5                	mov    %esi,%ebp
  40105b:	64 48 8b 04 25 28 00 	mov    %fs:0x28,%rax
  401062:	00 00 
  401064:	48 89 84 24 08 21 00 	mov    %rax,0x2108(%rsp)
  40106b:	00 
  40106c:	31 c0                	xor    %eax,%eax
  40106e:	89 3d a4 44 20 00    	mov    %edi,0x2044a4(%rip)        # 605518 <check_level>
  401074:	8b 3d ee 40 20 00    	mov    0x2040ee(%rip),%edi        # 605168 <target_id>
  40107a:	e8 8f 1e 00 00       	callq  402f0e <gencookie>
  40107f:	89 05 9f 44 20 00    	mov    %eax,0x20449f(%rip)        # 605524 <cookie>
  401085:	89 c7                	mov    %eax,%edi
  401087:	e8 82 1e 00 00       	callq  402f0e <gencookie>
  40108c:	89 05 8e 44 20 00    	mov    %eax,0x20448e(%rip)        # 605520 <authkey>
  401092:	8b 05 d0 40 20 00    	mov    0x2040d0(%rip),%eax        # 605168 <target_id>
  401098:	8d 78 01             	lea    0x1(%rax),%edi
  40109b:	e8 20 fc ff ff       	callq  400cc0 <srandom@plt>
  4010a0:	e8 3b fd ff ff       	callq  400de0 <random@plt>
  4010a5:	89 c7                	mov    %eax,%edi
  4010a7:	e8 03 03 00 00       	callq  4013af <scramble>
  4010ac:	89 c3                	mov    %eax,%ebx
  4010ae:	85 ed                	test   %ebp,%ebp
  4010b0:	74 18                	je     4010ca <initialize_target+0x7a>
  4010b2:	bf 00 00 00 00       	mov    $0x0,%edi
  4010b7:	e8 14 fd ff ff       	callq  400dd0 <time@plt>
  4010bc:	89 c7                	mov    %eax,%edi
  4010be:	e8 fd fb ff ff       	callq  400cc0 <srandom@plt>
  4010c3:	e8 18 fd ff ff       	callq  400de0 <random@plt>
  4010c8:	eb 05                	jmp    4010cf <initialize_target+0x7f>
  4010ca:	b8 00 00 00 00       	mov    $0x0,%eax
  4010cf:	01 c3                	add    %eax,%ebx
  4010d1:	0f b7 db             	movzwl %bx,%ebx
  4010d4:	8d 04 dd 00 01 00 00 	lea    0x100(,%rbx,8),%eax
  4010db:	89 c0                	mov    %eax,%eax
  4010dd:	48 89 05 bc 43 20 00 	mov    %rax,0x2043bc(%rip)        # 6054a0 <buf_offset>
  4010e4:	c6 05 5d 50 20 00 72 	movb   $0x72,0x20505d(%rip)        # 606148 <target_prefix>
  4010eb:	83 3d b6 43 20 00 00 	cmpl   $0x0,0x2043b6(%rip)        # 6054a8 <notify>
  4010f2:	0f 84 bb 00 00 00    	je     4011b3 <initialize_target+0x163>
  4010f8:	83 3d 29 44 20 00 00 	cmpl   $0x0,0x204429(%rip)        # 605528 <is_checker>
  4010ff:	0f 85 ae 00 00 00    	jne    4011b3 <initialize_target+0x163>
  401105:	be 00 01 00 00       	mov    $0x100,%esi
  40110a:	48 89 e7             	mov    %rsp,%rdi
  40110d:	e8 4e fd ff ff       	callq  400e60 <gethostname@plt>
  401112:	85 c0                	test   %eax,%eax
  401114:	74 25                	je     40113b <initialize_target+0xeb>
  401116:	bf 98 30 40 00       	mov    $0x403098,%edi
  40111b:	e8 d0 fb ff ff       	callq  400cf0 <puts@plt>
  401120:	bf 08 00 00 00       	mov    $0x8,%edi
  401125:	e8 46 fd ff ff       	callq  400e70 <exit@plt>
  40112a:	48 89 e6             	mov    %rsp,%rsi
  40112d:	e8 6e fb ff ff       	callq  400ca0 <strcasecmp@plt>
  401132:	85 c0                	test   %eax,%eax
  401134:	74 21                	je     401157 <initialize_target+0x107>
  401136:	83 c3 01             	add    $0x1,%ebx
  401139:	eb 05                	jmp    401140 <initialize_target+0xf0>
  40113b:	bb 00 00 00 00       	mov    $0x0,%ebx
  401140:	48 63 c3             	movslq %ebx,%rax
  401143:	48 8b 3c c5 80 51 60 	mov    0x605180(,%rax,8),%rdi
  40114a:	00 
  40114b:	48 85 ff             	test   %rdi,%rdi
  40114e:	75 da                	jne    40112a <initialize_target+0xda>
  401150:	b8 00 00 00 00       	mov    $0x0,%eax
  401155:	eb 05                	jmp    40115c <initialize_target+0x10c>
  401157:	b8 01 00 00 00       	mov    $0x1,%eax
  40115c:	85 c0                	test   %eax,%eax
  40115e:	75 1c                	jne    40117c <initialize_target+0x12c>
  401160:	48 89 e2             	mov    %rsp,%rdx
  401163:	be d0 30 40 00       	mov    $0x4030d0,%esi
  401168:	bf 01 00 00 00       	mov    $0x1,%edi
  40116d:	e8 ae fc ff ff       	callq  400e20 <__printf_chk@plt>
  401172:	bf 08 00 00 00       	mov    $0x8,%edi
  401177:	e8 f4 fc ff ff       	callq  400e70 <exit@plt>
  40117c:	48 8d bc 24 00 01 00 	lea    0x100(%rsp),%rdi
  401183:	00 
  401184:	e8 ef 1a 00 00       	callq  402c78 <init_driver>
  401189:	85 c0                	test   %eax,%eax
  40118b:	79 26                	jns    4011b3 <initialize_target+0x163>
  40118d:	48 8d 94 24 00 01 00 	lea    0x100(%rsp),%rdx
  401194:	00 
  401195:	be 10 31 40 00       	mov    $0x403110,%esi
  40119a:	bf 01 00 00 00       	mov    $0x1,%edi
  40119f:	b8 00 00 00 00       	mov    $0x0,%eax
  4011a4:	e8 77 fc ff ff       	callq  400e20 <__printf_chk@plt>
  4011a9:	bf 08 00 00 00       	mov    $0x8,%edi
  4011ae:	e8 bd fc ff ff       	callq  400e70 <exit@plt>
  4011b3:	48 8b 84 24 08 21 00 	mov    0x2108(%rsp),%rax
  4011ba:	00 
  4011bb:	64 48 33 04 25 28 00 	xor    %fs:0x28,%rax
  4011c2:	00 00 
  4011c4:	74 05                	je     4011cb <initialize_target+0x17b>
  4011c6:	e8 45 fb ff ff       	callq  400d10 <__stack_chk_fail@plt>
  4011cb:	48 81 c4 18 21 00 00 	add    $0x2118,%rsp
  4011d2:	5b                   	pop    %rbx
  4011d3:	5d                   	pop    %rbp
  4011d4:	c3                   	retq   

00000000004011d5 <main>:
  4011d5:	41 56                	push   %r14
  4011d7:	41 55                	push   %r13
  4011d9:	41 54                	push   %r12
  4011db:	55                   	push   %rbp
  4011dc:	53                   	push   %rbx
  4011dd:	41 89 fc             	mov    %edi,%r12d
  4011e0:	48 89 f3             	mov    %rsi,%rbx
  4011e3:	be 98 1f 40 00       	mov    $0x401f98,%esi
  4011e8:	bf 0b 00 00 00       	mov    $0xb,%edi
  4011ed:	e8 8e fb ff ff       	callq  400d80 <signal@plt>
  4011f2:	be 4a 1f 40 00       	mov    $0x401f4a,%esi
  4011f7:	bf 07 00 00 00       	mov    $0x7,%edi
  4011fc:	e8 7f fb ff ff       	callq  400d80 <signal@plt>
  401201:	be e6 1f 40 00       	mov    $0x401fe6,%esi
  401206:	bf 04 00 00 00       	mov    $0x4,%edi
  40120b:	e8 70 fb ff ff       	callq  400d80 <signal@plt>
  401210:	83 3d 11 43 20 00 00 	cmpl   $0x0,0x204311(%rip)        # 605528 <is_checker>
  401217:	74 20                	je     401239 <main+0x64>
  401219:	be 34 20 40 00       	mov    $0x402034,%esi
  40121e:	bf 0e 00 00 00       	mov    $0xe,%edi
  401223:	e8 58 fb ff ff       	callq  400d80 <signal@plt>
  401228:	bf 05 00 00 00       	mov    $0x5,%edi
  40122d:	e8 0e fb ff ff       	callq  400d40 <alarm@plt>
  401232:	bd da 31 40 00       	mov    $0x4031da,%ebp
  401237:	eb 05                	jmp    40123e <main+0x69>
  401239:	bd d5 31 40 00       	mov    $0x4031d5,%ebp
  40123e:	48 8b 05 7b 42 20 00 	mov    0x20427b(%rip),%rax        # 6054c0 <stdin@@GLIBC_2.2.5>
  401245:	48 89 05 c4 42 20 00 	mov    %rax,0x2042c4(%rip)        # 605510 <infile>
  40124c:	41 bd 00 00 00 00    	mov    $0x0,%r13d
  401252:	41 be 00 00 00 00    	mov    $0x0,%r14d
  401258:	e9 c6 00 00 00       	jmpq   401323 <main+0x14e>
  40125d:	83 e8 61             	sub    $0x61,%eax
  401260:	3c 10                	cmp    $0x10,%al
  401262:	0f 87 9c 00 00 00    	ja     401304 <main+0x12f>
  401268:	0f b6 c0             	movzbl %al,%eax
  40126b:	ff 24 c5 20 32 40 00 	jmpq   *0x403220(,%rax,8)
  401272:	48 8b 3b             	mov    (%rbx),%rdi
  401275:	e8 4c fd ff ff       	callq  400fc6 <usage>
  40127a:	be 2d 35 40 00       	mov    $0x40352d,%esi
  40127f:	48 8b 3d 42 42 20 00 	mov    0x204242(%rip),%rdi        # 6054c8 <optarg@@GLIBC_2.2.5>
  401286:	e8 a5 fb ff ff       	callq  400e30 <fopen@plt>
  40128b:	48 89 05 7e 42 20 00 	mov    %rax,0x20427e(%rip)        # 605510 <infile>
  401292:	48 85 c0             	test   %rax,%rax
  401295:	0f 85 88 00 00 00    	jne    401323 <main+0x14e>
  40129b:	48 8b 0d 26 42 20 00 	mov    0x204226(%rip),%rcx        # 6054c8 <optarg@@GLIBC_2.2.5>
  4012a2:	ba e2 31 40 00       	mov    $0x4031e2,%edx
  4012a7:	be 01 00 00 00       	mov    $0x1,%esi
  4012ac:	48 8b 3d 2d 42 20 00 	mov    0x20422d(%rip),%rdi        # 6054e0 <stderr@@GLIBC_2.2.5>
  4012b3:	e8 d8 fb ff ff       	callq  400e90 <__fprintf_chk@plt>
  4012b8:	b8 01 00 00 00       	mov    $0x1,%eax
  4012bd:	e9 e4 00 00 00       	jmpq   4013a6 <main+0x1d1>
  4012c2:	ba 10 00 00 00       	mov    $0x10,%edx
  4012c7:	be 00 00 00 00       	mov    $0x0,%esi
  4012cc:	48 8b 3d f5 41 20 00 	mov    0x2041f5(%rip),%rdi        # 6054c8 <optarg@@GLIBC_2.2.5>
  4012d3:	e8 78 fb ff ff       	callq  400e50 <strtoul@plt>
  4012d8:	41 89 c6             	mov    %eax,%r14d
  4012db:	eb 46                	jmp    401323 <main+0x14e>
  4012dd:	ba 0a 00 00 00       	mov    $0xa,%edx
  4012e2:	be 00 00 00 00       	mov    $0x0,%esi
  4012e7:	48 8b 3d da 41 20 00 	mov    0x2041da(%rip),%rdi        # 6054c8 <optarg@@GLIBC_2.2.5>
  4012ee:	e8 bd fa ff ff       	callq  400db0 <strtol@plt>
  4012f3:	41 89 c5             	mov    %eax,%r13d
  4012f6:	eb 2b                	jmp    401323 <main+0x14e>
  4012f8:	c7 05 a6 41 20 00 00 	movl   $0x0,0x2041a6(%rip)        # 6054a8 <notify>
  4012ff:	00 00 00 
  401302:	eb 1f                	jmp    401323 <main+0x14e>
  401304:	0f be d2             	movsbl %dl,%edx
  401307:	be ff 31 40 00       	mov    $0x4031ff,%esi
  40130c:	bf 01 00 00 00       	mov    $0x1,%edi
  401311:	b8 00 00 00 00       	mov    $0x0,%eax
  401316:	e8 05 fb ff ff       	callq  400e20 <__printf_chk@plt>
  40131b:	48 8b 3b             	mov    (%rbx),%rdi
  40131e:	e8 a3 fc ff ff       	callq  400fc6 <usage>
  401323:	48 89 ea             	mov    %rbp,%rdx
  401326:	48 89 de             	mov    %rbx,%rsi
  401329:	44 89 e7             	mov    %r12d,%edi
  40132c:	e8 0f fb ff ff       	callq  400e40 <getopt@plt>
  401331:	89 c2                	mov    %eax,%edx
  401333:	3c ff                	cmp    $0xff,%al
  401335:	0f 85 22 ff ff ff    	jne    40125d <main+0x88>
  40133b:	be 01 00 00 00       	mov    $0x1,%esi
  401340:	44 89 ef             	mov    %r13d,%edi
  401343:	e8 08 fd ff ff       	callq  401050 <initialize_target>
  401348:	83 3d d9 41 20 00 00 	cmpl   $0x0,0x2041d9(%rip)        # 605528 <is_checker>
  40134f:	74 2a                	je     40137b <main+0x1a6>
  401351:	44 3b 35 c8 41 20 00 	cmp    0x2041c8(%rip),%r14d        # 605520 <authkey>
  401358:	74 21                	je     40137b <main+0x1a6>
  40135a:	44 89 f2             	mov    %r14d,%edx
  40135d:	be 38 31 40 00       	mov    $0x403138,%esi
  401362:	bf 01 00 00 00       	mov    $0x1,%edi
  401367:	b8 00 00 00 00       	mov    $0x0,%eax
  40136c:	e8 af fa ff ff       	callq  400e20 <__printf_chk@plt>
  401371:	b8 00 00 00 00       	mov    $0x0,%eax
  401376:	e8 6b 08 00 00       	callq  401be6 <check_fail>
  40137b:	8b 15 a3 41 20 00    	mov    0x2041a3(%rip),%edx        # 605524 <cookie>
  401381:	be 12 32 40 00       	mov    $0x403212,%esi
  401386:	bf 01 00 00 00       	mov    $0x1,%edi
  40138b:	b8 00 00 00 00       	mov    $0x0,%eax
  401390:	e8 8b fa ff ff       	callq  400e20 <__printf_chk@plt>
  401395:	48 8b 3d 04 41 20 00 	mov    0x204104(%rip),%rdi        # 6054a0 <buf_offset>
  40139c:	e8 e6 0c 00 00       	callq  402087 <launch>
  4013a1:	b8 00 00 00 00       	mov    $0x0,%eax
  4013a6:	5b                   	pop    %rbx
  4013a7:	5d                   	pop    %rbp
  4013a8:	41 5c                	pop    %r12
  4013aa:	41 5d                	pop    %r13
  4013ac:	41 5e                	pop    %r14
  4013ae:	c3                   	retq   

00000000004013af <scramble>:
  4013af:	48 83 ec 38          	sub    $0x38,%rsp
  4013b3:	64 48 8b 04 25 28 00 	mov    %fs:0x28,%rax
  4013ba:	00 00 
  4013bc:	48 89 44 24 28       	mov    %rax,0x28(%rsp)
  4013c1:	31 c0                	xor    %eax,%eax
  4013c3:	eb 10                	jmp    4013d5 <scramble+0x26>
  4013c5:	69 d0 4e ff 00 00    	imul   $0xff4e,%eax,%edx
  4013cb:	01 fa                	add    %edi,%edx
  4013cd:	89 c1                	mov    %eax,%ecx
  4013cf:	89 14 8c             	mov    %edx,(%rsp,%rcx,4)
  4013d2:	83 c0 01             	add    $0x1,%eax
  4013d5:	83 f8 09             	cmp    $0x9,%eax
  4013d8:	76 eb                	jbe    4013c5 <scramble+0x16>
  4013da:	8b 44 24 08          	mov    0x8(%rsp),%eax
  4013de:	69 c0 2f 20 00 00    	imul   $0x202f,%eax,%eax
  4013e4:	89 44 24 08          	mov    %eax,0x8(%rsp)
  4013e8:	8b 44 24 24          	mov    0x24(%rsp),%eax
  4013ec:	69 c0 b0 a7 00 00    	imul   $0xa7b0,%eax,%eax
  4013f2:	89 44 24 24          	mov    %eax,0x24(%rsp)
  4013f6:	8b 44 24 0c          	mov    0xc(%rsp),%eax
  4013fa:	69 c0 e9 54 00 00    	imul   $0x54e9,%eax,%eax
  401400:	89 44 24 0c          	mov    %eax,0xc(%rsp)
  401404:	8b 44 24 18          	mov    0x18(%rsp),%eax
  401408:	69 c0 75 cc 00 00    	imul   $0xcc75,%eax,%eax
  40140e:	89 44 24 18          	mov    %eax,0x18(%rsp)
  401412:	8b 44 24 20          	mov    0x20(%rsp),%eax
  401416:	69 c0 15 1b 00 00    	imul   $0x1b15,%eax,%eax
  40141c:	89 44 24 20          	mov    %eax,0x20(%rsp)
  401420:	8b 44 24 20          	mov    0x20(%rsp),%eax
  401424:	69 c0 7a bc 00 00    	imul   $0xbc7a,%eax,%eax
  40142a:	89 44 24 20          	mov    %eax,0x20(%rsp)
  40142e:	8b 04 24             	mov    (%rsp),%eax
  401431:	69 c0 67 fd 00 00    	imul   $0xfd67,%eax,%eax
  401437:	89 04 24             	mov    %eax,(%rsp)
  40143a:	8b 44 24 14          	mov    0x14(%rsp),%eax
  40143e:	69 c0 ad c9 00 00    	imul   $0xc9ad,%eax,%eax
  401444:	89 44 24 14          	mov    %eax,0x14(%rsp)
  401448:	8b 04 24             	mov    (%rsp),%eax
  40144b:	69 c0 db 93 00 00    	imul   $0x93db,%eax,%eax
  401451:	89 04 24             	mov    %eax,(%rsp)
  401454:	8b 44 24 04          	mov    0x4(%rsp),%eax
  401458:	69 c0 1f 1c 00 00    	imul   $0x1c1f,%eax,%eax
  40145e:	89 44 24 04          	mov    %eax,0x4(%rsp)
  401462:	8b 44 24 10          	mov    0x10(%rsp),%eax
  401466:	69 c0 1a 77 00 00    	imul   $0x771a,%eax,%eax
  40146c:	89 44 24 10          	mov    %eax,0x10(%rsp)
  401470:	8b 44 24 18          	mov    0x18(%rsp),%eax
  401474:	69 c0 4d 31 00 00    	imul   $0x314d,%eax,%eax
  40147a:	89 44 24 18          	mov    %eax,0x18(%rsp)
  40147e:	8b 44 24 10          	mov    0x10(%rsp),%eax
  401482:	69 c0 34 b3 00 00    	imul   $0xb334,%eax,%eax
  401488:	89 44 24 10          	mov    %eax,0x10(%rsp)
  40148c:	8b 44 24 08          	mov    0x8(%rsp),%eax
  401490:	69 c0 34 c6 00 00    	imul   $0xc634,%eax,%eax
  401496:	89 44 24 08          	mov    %eax,0x8(%rsp)
  40149a:	8b 44 24 08          	mov    0x8(%rsp),%eax
  40149e:	69 c0 7c 38 00 00    	imul   $0x387c,%eax,%eax
  4014a4:	89 44 24 08          	mov    %eax,0x8(%rsp)
  4014a8:	8b 44 24 18          	mov    0x18(%rsp),%eax
  4014ac:	69 c0 fa 24 00 00    	imul   $0x24fa,%eax,%eax
  4014b2:	89 44 24 18          	mov    %eax,0x18(%rsp)
  4014b6:	8b 44 24 10          	mov    0x10(%rsp),%eax
  4014ba:	69 c0 8d a1 00 00    	imul   $0xa18d,%eax,%eax
  4014c0:	89 44 24 10          	mov    %eax,0x10(%rsp)
  4014c4:	8b 44 24 10          	mov    0x10(%rsp),%eax
  4014c8:	69 c0 cb 89 00 00    	imul   $0x89cb,%eax,%eax
  4014ce:	89 44 24 10          	mov    %eax,0x10(%rsp)
  4014d2:	8b 44 24 08          	mov    0x8(%rsp),%eax
  4014d6:	69 c0 fb f0 00 00    	imul   $0xf0fb,%eax,%eax
  4014dc:	89 44 24 08          	mov    %eax,0x8(%rsp)
  4014e0:	8b 44 24 20          	mov    0x20(%rsp),%eax
  4014e4:	69 c0 4e f7 00 00    	imul   $0xf74e,%eax,%eax
  4014ea:	89 44 24 20          	mov    %eax,0x20(%rsp)
  4014ee:	8b 44 24 18          	mov    0x18(%rsp),%eax
  4014f2:	69 c0 3b 37 00 00    	imul   $0x373b,%eax,%eax
  4014f8:	89 44 24 18          	mov    %eax,0x18(%rsp)
  4014fc:	8b 44 24 18          	mov    0x18(%rsp),%eax
  401500:	69 c0 9d a8 00 00    	imul   $0xa89d,%eax,%eax
  401506:	89 44 24 18          	mov    %eax,0x18(%rsp)
  40150a:	8b 44 24 20          	mov    0x20(%rsp),%eax
  40150e:	69 c0 34 0d 00 00    	imul   $0xd34,%eax,%eax
  401514:	89 44 24 20          	mov    %eax,0x20(%rsp)
  401518:	8b 44 24 18          	mov    0x18(%rsp),%eax
  40151c:	69 c0 49 19 00 00    	imul   $0x1949,%eax,%eax
  401522:	89 44 24 18          	mov    %eax,0x18(%rsp)
  401526:	8b 44 24 08          	mov    0x8(%rsp),%eax
  40152a:	69 c0 fc 76 00 00    	imul   $0x76fc,%eax,%eax
  401530:	89 44 24 08          	mov    %eax,0x8(%rsp)
  401534:	8b 04 24             	mov    (%rsp),%eax
  401537:	69 c0 f7 19 00 00    	imul   $0x19f7,%eax,%eax
  40153d:	89 04 24             	mov    %eax,(%rsp)
  401540:	8b 44 24 10          	mov    0x10(%rsp),%eax
  401544:	69 c0 64 94 00 00    	imul   $0x9464,%eax,%eax
  40154a:	89 44 24 10          	mov    %eax,0x10(%rsp)
  40154e:	8b 44 24 24          	mov    0x24(%rsp),%eax
  401552:	69 c0 75 fd 00 00    	imul   $0xfd75,%eax,%eax
  401558:	89 44 24 24          	mov    %eax,0x24(%rsp)
  40155c:	8b 44 24 04          	mov    0x4(%rsp),%eax
  401560:	69 c0 20 9f 00 00    	imul   $0x9f20,%eax,%eax
  401566:	89 44 24 04          	mov    %eax,0x4(%rsp)
  40156a:	8b 44 24 08          	mov    0x8(%rsp),%eax
  40156e:	69 c0 45 6d 00 00    	imul   $0x6d45,%eax,%eax
  401574:	89 44 24 08          	mov    %eax,0x8(%rsp)
  401578:	8b 44 24 0c          	mov    0xc(%rsp),%eax
  40157c:	69 c0 d9 33 00 00    	imul   $0x33d9,%eax,%eax
  401582:	89 44 24 0c          	mov    %eax,0xc(%rsp)
  401586:	8b 44 24 08          	mov    0x8(%rsp),%eax
  40158a:	69 c0 48 30 00 00    	imul   $0x3048,%eax,%eax
  401590:	89 44 24 08          	mov    %eax,0x8(%rsp)
  401594:	8b 44 24 18          	mov    0x18(%rsp),%eax
  401598:	69 c0 e9 5e 00 00    	imul   $0x5ee9,%eax,%eax
  40159e:	89 44 24 18          	mov    %eax,0x18(%rsp)
  4015a2:	8b 44 24 20          	mov    0x20(%rsp),%eax
  4015a6:	69 c0 dd cb 00 00    	imul   $0xcbdd,%eax,%eax
  4015ac:	89 44 24 20          	mov    %eax,0x20(%rsp)
  4015b0:	8b 44 24 04          	mov    0x4(%rsp),%eax
  4015b4:	69 c0 54 10 00 00    	imul   $0x1054,%eax,%eax
  4015ba:	89 44 24 04          	mov    %eax,0x4(%rsp)
  4015be:	8b 44 24 14          	mov    0x14(%rsp),%eax
  4015c2:	69 c0 f5 5b 00 00    	imul   $0x5bf5,%eax,%eax
  4015c8:	89 44 24 14          	mov    %eax,0x14(%rsp)
  4015cc:	8b 44 24 18          	mov    0x18(%rsp),%eax
  4015d0:	69 c0 f4 76 00 00    	imul   $0x76f4,%eax,%eax
  4015d6:	89 44 24 18          	mov    %eax,0x18(%rsp)
  4015da:	8b 44 24 20          	mov    0x20(%rsp),%eax
  4015de:	69 c0 31 7c 00 00    	imul   $0x7c31,%eax,%eax
  4015e4:	89 44 24 20          	mov    %eax,0x20(%rsp)
  4015e8:	8b 44 24 18          	mov    0x18(%rsp),%eax
  4015ec:	69 c0 dc 76 00 00    	imul   $0x76dc,%eax,%eax
  4015f2:	89 44 24 18          	mov    %eax,0x18(%rsp)
  4015f6:	8b 44 24 18          	mov    0x18(%rsp),%eax
  4015fa:	69 c0 38 25 00 00    	imul   $0x2538,%eax,%eax
  401600:	89 44 24 18          	mov    %eax,0x18(%rsp)
  401604:	8b 44 24 14          	mov    0x14(%rsp),%eax
  401608:	69 c0 e2 ca 00 00    	imul   $0xcae2,%eax,%eax
  40160e:	89 44 24 14          	mov    %eax,0x14(%rsp)
  401612:	8b 44 24 04          	mov    0x4(%rsp),%eax
  401616:	69 c0 ef db 00 00    	imul   $0xdbef,%eax,%eax
  40161c:	89 44 24 04          	mov    %eax,0x4(%rsp)
  401620:	8b 44 24 20          	mov    0x20(%rsp),%eax
  401624:	69 c0 73 8a 00 00    	imul   $0x8a73,%eax,%eax
  40162a:	89 44 24 20          	mov    %eax,0x20(%rsp)
  40162e:	8b 44 24 24          	mov    0x24(%rsp),%eax
  401632:	69 c0 e0 a6 00 00    	imul   $0xa6e0,%eax,%eax
  401638:	89 44 24 24          	mov    %eax,0x24(%rsp)
  40163c:	8b 44 24 0c          	mov    0xc(%rsp),%eax
  401640:	69 c0 0d 9d 00 00    	imul   $0x9d0d,%eax,%eax
  401646:	89 44 24 0c          	mov    %eax,0xc(%rsp)
  40164a:	8b 44 24 18          	mov    0x18(%rsp),%eax
  40164e:	69 c0 30 01 00 00    	imul   $0x130,%eax,%eax
  401654:	89 44 24 18          	mov    %eax,0x18(%rsp)
  401658:	8b 44 24 10          	mov    0x10(%rsp),%eax
  40165c:	69 c0 64 a6 00 00    	imul   $0xa664,%eax,%eax
  401662:	89 44 24 10          	mov    %eax,0x10(%rsp)
  401666:	8b 44 24 24          	mov    0x24(%rsp),%eax
  40166a:	69 c0 4d a6 00 00    	imul   $0xa64d,%eax,%eax
  401670:	89 44 24 24          	mov    %eax,0x24(%rsp)
  401674:	8b 04 24             	mov    (%rsp),%eax
  401677:	69 c0 8c eb 00 00    	imul   $0xeb8c,%eax,%eax
  40167d:	89 04 24             	mov    %eax,(%rsp)
  401680:	8b 44 24 14          	mov    0x14(%rsp),%eax
  401684:	69 c0 31 55 00 00    	imul   $0x5531,%eax,%eax
  40168a:	89 44 24 14          	mov    %eax,0x14(%rsp)
  40168e:	8b 44 24 20          	mov    0x20(%rsp),%eax
  401692:	69 c0 55 35 00 00    	imul   $0x3555,%eax,%eax
  401698:	89 44 24 20          	mov    %eax,0x20(%rsp)
  40169c:	8b 44 24 04          	mov    0x4(%rsp),%eax
  4016a0:	69 c0 70 43 00 00    	imul   $0x4370,%eax,%eax
  4016a6:	89 44 24 04          	mov    %eax,0x4(%rsp)
  4016aa:	8b 44 24 18          	mov    0x18(%rsp),%eax
  4016ae:	69 c0 b8 b5 00 00    	imul   $0xb5b8,%eax,%eax
  4016b4:	89 44 24 18          	mov    %eax,0x18(%rsp)
  4016b8:	8b 44 24 08          	mov    0x8(%rsp),%eax
  4016bc:	69 c0 72 30 00 00    	imul   $0x3072,%eax,%eax
  4016c2:	89 44 24 08          	mov    %eax,0x8(%rsp)
  4016c6:	8b 44 24 20          	mov    0x20(%rsp),%eax
  4016ca:	69 c0 1c 55 00 00    	imul   $0x551c,%eax,%eax
  4016d0:	89 44 24 20          	mov    %eax,0x20(%rsp)
  4016d4:	8b 44 24 14          	mov    0x14(%rsp),%eax
  4016d8:	69 c0 6d 1a 00 00    	imul   $0x1a6d,%eax,%eax
  4016de:	89 44 24 14          	mov    %eax,0x14(%rsp)
  4016e2:	8b 04 24             	mov    (%rsp),%eax
  4016e5:	69 c0 da 94 00 00    	imul   $0x94da,%eax,%eax
  4016eb:	89 04 24             	mov    %eax,(%rsp)
  4016ee:	8b 44 24 14          	mov    0x14(%rsp),%eax
  4016f2:	69 c0 46 7f 00 00    	imul   $0x7f46,%eax,%eax
  4016f8:	89 44 24 14          	mov    %eax,0x14(%rsp)
  4016fc:	8b 44 24 20          	mov    0x20(%rsp),%eax
  401700:	69 c0 c0 cf 00 00    	imul   $0xcfc0,%eax,%eax
  401706:	89 44 24 20          	mov    %eax,0x20(%rsp)
  40170a:	8b 44 24 24          	mov    0x24(%rsp),%eax
  40170e:	69 c0 e1 48 00 00    	imul   $0x48e1,%eax,%eax
  401714:	89 44 24 24          	mov    %eax,0x24(%rsp)
  401718:	8b 44 24 24          	mov    0x24(%rsp),%eax
  40171c:	69 c0 4b 3a 00 00    	imul   $0x3a4b,%eax,%eax
  401722:	89 44 24 24          	mov    %eax,0x24(%rsp)
  401726:	8b 44 24 04          	mov    0x4(%rsp),%eax
  40172a:	69 c0 b3 3d 00 00    	imul   $0x3db3,%eax,%eax
  401730:	89 44 24 04          	mov    %eax,0x4(%rsp)
  401734:	8b 44 24 18          	mov    0x18(%rsp),%eax
  401738:	69 c0 89 7b 00 00    	imul   $0x7b89,%eax,%eax
  40173e:	89 44 24 18          	mov    %eax,0x18(%rsp)
  401742:	8b 44 24 20          	mov    0x20(%rsp),%eax
  401746:	69 c0 fc e5 00 00    	imul   $0xe5fc,%eax,%eax
  40174c:	89 44 24 20          	mov    %eax,0x20(%rsp)
  401750:	8b 44 24 04          	mov    0x4(%rsp),%eax
  401754:	69 c0 2a 56 00 00    	imul   $0x562a,%eax,%eax
  40175a:	89 44 24 04          	mov    %eax,0x4(%rsp)
  40175e:	8b 44 24 20          	mov    0x20(%rsp),%eax
  401762:	69 c0 f7 62 00 00    	imul   $0x62f7,%eax,%eax
  401768:	89 44 24 20          	mov    %eax,0x20(%rsp)
  40176c:	8b 44 24 14          	mov    0x14(%rsp),%eax
  401770:	69 c0 54 ec 00 00    	imul   $0xec54,%eax,%eax
  401776:	89 44 24 14          	mov    %eax,0x14(%rsp)
  40177a:	8b 44 24 20          	mov    0x20(%rsp),%eax
  40177e:	69 c0 c9 37 00 00    	imul   $0x37c9,%eax,%eax
  401784:	89 44 24 20          	mov    %eax,0x20(%rsp)
  401788:	8b 44 24 0c          	mov    0xc(%rsp),%eax
  40178c:	69 c0 09 66 00 00    	imul   $0x6609,%eax,%eax
  401792:	89 44 24 0c          	mov    %eax,0xc(%rsp)
  401796:	8b 44 24 18          	mov    0x18(%rsp),%eax
  40179a:	69 c0 a1 ce 00 00    	imul   $0xcea1,%eax,%eax
  4017a0:	89 44 24 18          	mov    %eax,0x18(%rsp)
  4017a4:	8b 44 24 10          	mov    0x10(%rsp),%eax
  4017a8:	69 c0 e6 bd 00 00    	imul   $0xbde6,%eax,%eax
  4017ae:	89 44 24 10          	mov    %eax,0x10(%rsp)
  4017b2:	8b 44 24 20          	mov    0x20(%rsp),%eax
  4017b6:	69 c0 25 db 00 00    	imul   $0xdb25,%eax,%eax
  4017bc:	89 44 24 20          	mov    %eax,0x20(%rsp)
  4017c0:	8b 44 24 1c          	mov    0x1c(%rsp),%eax
  4017c4:	69 c0 6a df 00 00    	imul   $0xdf6a,%eax,%eax
  4017ca:	89 44 24 1c          	mov    %eax,0x1c(%rsp)
  4017ce:	8b 44 24 18          	mov    0x18(%rsp),%eax
  4017d2:	69 c0 0d 72 00 00    	imul   $0x720d,%eax,%eax
  4017d8:	89 44 24 18          	mov    %eax,0x18(%rsp)
  4017dc:	8b 04 24             	mov    (%rsp),%eax
  4017df:	69 c0 91 80 00 00    	imul   $0x8091,%eax,%eax
  4017e5:	89 04 24             	mov    %eax,(%rsp)
  4017e8:	8b 04 24             	mov    (%rsp),%eax
  4017eb:	69 c0 f7 1b 00 00    	imul   $0x1bf7,%eax,%eax
  4017f1:	89 04 24             	mov    %eax,(%rsp)
  4017f4:	8b 44 24 08          	mov    0x8(%rsp),%eax
  4017f8:	69 c0 ff 04 00 00    	imul   $0x4ff,%eax,%eax
  4017fe:	89 44 24 08          	mov    %eax,0x8(%rsp)
  401802:	8b 44 24 24          	mov    0x24(%rsp),%eax
  401806:	69 c0 8b 9b 00 00    	imul   $0x9b8b,%eax,%eax
  40180c:	89 44 24 24          	mov    %eax,0x24(%rsp)
  401810:	8b 44 24 14          	mov    0x14(%rsp),%eax
  401814:	69 c0 ab 3d 00 00    	imul   $0x3dab,%eax,%eax
  40181a:	89 44 24 14          	mov    %eax,0x14(%rsp)
  40181e:	8b 44 24 1c          	mov    0x1c(%rsp),%eax
  401822:	69 c0 9f e7 00 00    	imul   $0xe79f,%eax,%eax
  401828:	89 44 24 1c          	mov    %eax,0x1c(%rsp)
  40182c:	8b 04 24             	mov    (%rsp),%eax
  40182f:	69 c0 b4 bc 00 00    	imul   $0xbcb4,%eax,%eax
  401835:	89 04 24             	mov    %eax,(%rsp)
  401838:	ba 00 00 00 00       	mov    $0x0,%edx
  40183d:	b8 00 00 00 00       	mov    $0x0,%eax
  401842:	eb 0a                	jmp    40184e <scramble+0x49f>
  401844:	89 d1                	mov    %edx,%ecx
  401846:	8b 0c 8c             	mov    (%rsp,%rcx,4),%ecx
  401849:	01 c8                	add    %ecx,%eax
  40184b:	83 c2 01             	add    $0x1,%edx
  40184e:	83 fa 09             	cmp    $0x9,%edx
  401851:	76 f1                	jbe    401844 <scramble+0x495>
  401853:	48 8b 74 24 28       	mov    0x28(%rsp),%rsi
  401858:	64 48 33 34 25 28 00 	xor    %fs:0x28,%rsi
  40185f:	00 00 
  401861:	74 05                	je     401868 <scramble+0x4b9>
  401863:	e8 a8 f4 ff ff       	callq  400d10 <__stack_chk_fail@plt>
  401868:	48 83 c4 38          	add    $0x38,%rsp
  40186c:	c3                   	retq   

000000000040186d <getbuf>:
  40186d:	48 83 ec 18          	sub    $0x18,%rsp
  401871:	48 89 e7             	mov    %rsp,%rdi
  401874:	e8 a2 03 00 00       	callq  401c1b <Gets>
  401879:	b8 01 00 00 00       	mov    $0x1,%eax
  40187e:	48 83 c4 18          	add    $0x18,%rsp
  401882:	c3                   	retq   

0000000000401883 <touch1>:
  401883:	48 83 ec 08          	sub    $0x8,%rsp
  401887:	c7 05 8b 3c 20 00 01 	movl   $0x1,0x203c8b(%rip)        # 60551c <vlevel>
  40188e:	00 00 00 
  401891:	bf 86 33 40 00       	mov    $0x403386,%edi
  401896:	e8 55 f4 ff ff       	callq  400cf0 <puts@plt>
  40189b:	bf 01 00 00 00       	mov    $0x1,%edi
  4018a0:	e8 bb 05 00 00       	callq  401e60 <validate>
  4018a5:	bf 00 00 00 00       	mov    $0x0,%edi
  4018aa:	e8 c1 f5 ff ff       	callq  400e70 <exit@plt>

00000000004018af <touch2>:
  4018af:	48 83 ec 08          	sub    $0x8,%rsp
  4018b3:	89 fa                	mov    %edi,%edx
  4018b5:	c7 05 5d 3c 20 00 02 	movl   $0x2,0x203c5d(%rip)        # 60551c <vlevel>
  4018bc:	00 00 00 
  4018bf:	39 3d 5f 3c 20 00    	cmp    %edi,0x203c5f(%rip)        # 605524 <cookie>
  4018c5:	75 20                	jne    4018e7 <touch2+0x38>
  4018c7:	be a8 33 40 00       	mov    $0x4033a8,%esi
  4018cc:	bf 01 00 00 00       	mov    $0x1,%edi
  4018d1:	b8 00 00 00 00       	mov    $0x0,%eax
  4018d6:	e8 45 f5 ff ff       	callq  400e20 <__printf_chk@plt>
  4018db:	bf 02 00 00 00       	mov    $0x2,%edi
  4018e0:	e8 7b 05 00 00       	callq  401e60 <validate>
  4018e5:	eb 1e                	jmp    401905 <touch2+0x56>
  4018e7:	be d0 33 40 00       	mov    $0x4033d0,%esi
  4018ec:	bf 01 00 00 00       	mov    $0x1,%edi
  4018f1:	b8 00 00 00 00       	mov    $0x0,%eax
  4018f6:	e8 25 f5 ff ff       	callq  400e20 <__printf_chk@plt>
  4018fb:	bf 02 00 00 00       	mov    $0x2,%edi
  401900:	e8 1d 06 00 00       	callq  401f22 <fail>
  401905:	bf 00 00 00 00       	mov    $0x0,%edi
  40190a:	e8 61 f5 ff ff       	callq  400e70 <exit@plt>

000000000040190f <hexmatch>:
  40190f:	41 54                	push   %r12
  401911:	55                   	push   %rbp
  401912:	53                   	push   %rbx
  401913:	48 83 c4 80          	add    $0xffffffffffffff80,%rsp
  401917:	89 fd                	mov    %edi,%ebp
  401919:	48 89 f3             	mov    %rsi,%rbx
  40191c:	64 48 8b 04 25 28 00 	mov    %fs:0x28,%rax
  401923:	00 00 
  401925:	48 89 44 24 78       	mov    %rax,0x78(%rsp)
  40192a:	31 c0                	xor    %eax,%eax
  40192c:	e8 af f4 ff ff       	callq  400de0 <random@plt>
  401931:	48 89 c1             	mov    %rax,%rcx
  401934:	48 ba 0b d7 a3 70 3d 	movabs $0xa3d70a3d70a3d70b,%rdx
  40193b:	0a d7 a3 
  40193e:	48 f7 ea             	imul   %rdx
  401941:	48 01 ca             	add    %rcx,%rdx
  401944:	48 c1 fa 06          	sar    $0x6,%rdx
  401948:	48 89 c8             	mov    %rcx,%rax
  40194b:	48 c1 f8 3f          	sar    $0x3f,%rax
  40194f:	48 29 c2             	sub    %rax,%rdx
  401952:	48 8d 04 92          	lea    (%rdx,%rdx,4),%rax
  401956:	48 8d 14 80          	lea    (%rax,%rax,4),%rdx
  40195a:	48 8d 04 95 00 00 00 	lea    0x0(,%rdx,4),%rax
  401961:	00 
  401962:	48 29 c1             	sub    %rax,%rcx
  401965:	4c 8d 24 0c          	lea    (%rsp,%rcx,1),%r12
  401969:	41 89 e8             	mov    %ebp,%r8d
  40196c:	b9 a3 33 40 00       	mov    $0x4033a3,%ecx
  401971:	48 c7 c2 ff ff ff ff 	mov    $0xffffffffffffffff,%rdx
  401978:	be 01 00 00 00       	mov    $0x1,%esi
  40197d:	4c 89 e7             	mov    %r12,%rdi
  401980:	b8 00 00 00 00       	mov    $0x0,%eax
  401985:	e8 16 f5 ff ff       	callq  400ea0 <__sprintf_chk@plt>
  40198a:	ba 09 00 00 00       	mov    $0x9,%edx
  40198f:	4c 89 e6             	mov    %r12,%rsi
  401992:	48 89 df             	mov    %rbx,%rdi
  401995:	e8 36 f3 ff ff       	callq  400cd0 <strncmp@plt>
  40199a:	85 c0                	test   %eax,%eax
  40199c:	0f 94 c0             	sete   %al
  40199f:	48 8b 5c 24 78       	mov    0x78(%rsp),%rbx
  4019a4:	64 48 33 1c 25 28 00 	xor    %fs:0x28,%rbx
  4019ab:	00 00 
  4019ad:	74 05                	je     4019b4 <hexmatch+0xa5>
  4019af:	e8 5c f3 ff ff       	callq  400d10 <__stack_chk_fail@plt>
  4019b4:	0f b6 c0             	movzbl %al,%eax
  4019b7:	48 83 ec 80          	sub    $0xffffffffffffff80,%rsp
  4019bb:	5b                   	pop    %rbx
  4019bc:	5d                   	pop    %rbp
  4019bd:	41 5c                	pop    %r12
  4019bf:	c3                   	retq   

00000000004019c0 <touch3>:
  4019c0:	53                   	push   %rbx
  4019c1:	48 89 fb             	mov    %rdi,%rbx
  4019c4:	c7 05 4e 3b 20 00 03 	movl   $0x3,0x203b4e(%rip)        # 60551c <vlevel>
  4019cb:	00 00 00 
  4019ce:	48 89 fe             	mov    %rdi,%rsi
  4019d1:	8b 3d 4d 3b 20 00    	mov    0x203b4d(%rip),%edi        # 605524 <cookie>
  4019d7:	e8 33 ff ff ff       	callq  40190f <hexmatch>
  4019dc:	85 c0                	test   %eax,%eax
  4019de:	74 23                	je     401a03 <touch3+0x43>
  4019e0:	48 89 da             	mov    %rbx,%rdx
  4019e3:	be f8 33 40 00       	mov    $0x4033f8,%esi
  4019e8:	bf 01 00 00 00       	mov    $0x1,%edi
  4019ed:	b8 00 00 00 00       	mov    $0x0,%eax
  4019f2:	e8 29 f4 ff ff       	callq  400e20 <__printf_chk@plt>
  4019f7:	bf 03 00 00 00       	mov    $0x3,%edi
  4019fc:	e8 5f 04 00 00       	callq  401e60 <validate>
  401a01:	eb 21                	jmp    401a24 <touch3+0x64>
  401a03:	48 89 da             	mov    %rbx,%rdx
  401a06:	be 20 34 40 00       	mov    $0x403420,%esi
  401a0b:	bf 01 00 00 00       	mov    $0x1,%edi
  401a10:	b8 00 00 00 00       	mov    $0x0,%eax
  401a15:	e8 06 f4 ff ff       	callq  400e20 <__printf_chk@plt>
  401a1a:	bf 03 00 00 00       	mov    $0x3,%edi
  401a1f:	e8 fe 04 00 00       	callq  401f22 <fail>
  401a24:	bf 00 00 00 00       	mov    $0x0,%edi
  401a29:	e8 42 f4 ff ff       	callq  400e70 <exit@plt>

0000000000401a2e <test>:
  401a2e:	48 83 ec 08          	sub    $0x8,%rsp
  401a32:	b8 00 00 00 00       	mov    $0x0,%eax
  401a37:	e8 31 fe ff ff       	callq  40186d <getbuf>
  401a3c:	89 c2                	mov    %eax,%edx
  401a3e:	be 48 34 40 00       	mov    $0x403448,%esi
  401a43:	bf 01 00 00 00       	mov    $0x1,%edi
  401a48:	b8 00 00 00 00       	mov    $0x0,%eax
  401a4d:	e8 ce f3 ff ff       	callq  400e20 <__printf_chk@plt>
  401a52:	48 83 c4 08          	add    $0x8,%rsp
  401a56:	c3                   	retq   

0000000000401a57 <start_farm>:
  401a57:	b8 01 00 00 00       	mov    $0x1,%eax
  401a5c:	c3                   	retq   

0000000000401a5d <setval_328>:
  401a5d:	c7 07 48 89 c7 c3    	movl   $0xc3c78948,(%rdi)
  401a63:	c3                   	retq   

0000000000401a64 <getval_292>:
  401a64:	b8 d8 90 90 c3       	mov    $0xc39090d8,%eax
  401a69:	c3                   	retq   

0000000000401a6a <addval_123>:
  401a6a:	8d 87 58 89 c7 c3    	lea    -0x3c3876a8(%rdi),%eax
  401a70:	c3                   	retq   

0000000000401a71 <addval_470>:
  401a71:	8d 87 58 90 90 90    	lea    -0x6f6f6fa8(%rdi),%eax
  401a77:	c3                   	retq   

0000000000401a78 <getval_242>:
  401a78:	b8 48 89 c7 c1       	mov    $0xc1c78948,%eax
  401a7d:	c3                   	retq   

0000000000401a7e <setval_305>:
  401a7e:	c7 07 58 90 90 c3    	movl   $0xc3909058,(%rdi)
  401a84:	c3                   	retq   

0000000000401a85 <setval_190>:
  401a85:	c7 07 48 89 c7 90    	movl   $0x90c78948,(%rdi)
  401a8b:	c3                   	retq   

0000000000401a8c <addval_227>:
  401a8c:	8d 87 58 94 90 90    	lea    -0x6f6f6ba8(%rdi),%eax
  401a92:	c3                   	retq   

0000000000401a93 <mid_farm>:
  401a93:	b8 01 00 00 00       	mov    $0x1,%eax
  401a98:	c3                   	retq   

0000000000401a99 <add_xy>:
  401a99:	48 8d 04 37          	lea    (%rdi,%rsi,1),%rax
  401a9d:	c3                   	retq   

0000000000401a9e <getval_337>:
  401a9e:	b8 ee 89 d6 91       	mov    $0x91d689ee,%eax
  401aa3:	c3                   	retq   

0000000000401aa4 <setval_372>:
  401aa4:	c7 07 48 88 e0 c3    	movl   $0xc3e08848,(%rdi)
  401aaa:	c3                   	retq   

0000000000401aab <addval_225>:
  401aab:	8d 87 89 ca 18 db    	lea    -0x24e73577(%rdi),%eax
  401ab1:	c3                   	retq   

0000000000401ab2 <setval_455>:
  401ab2:	c7 07 89 ca 60 c9    	movl   $0xc960ca89,(%rdi)
  401ab8:	c3                   	retq   

0000000000401ab9 <setval_491>:
  401ab9:	c7 07 c9 c1 08 c0    	movl   $0xc008c1c9,(%rdi)
  401abf:	c3                   	retq   

0000000000401ac0 <addval_414>:
  401ac0:	8d 87 48 81 e0 c3    	lea    -0x3c1f7eb8(%rdi),%eax
  401ac6:	c3                   	retq   

0000000000401ac7 <addval_228>:
  401ac7:	8d 87 89 ca 84 c0    	lea    -0x3f7b3577(%rdi),%eax
  401acd:	c3                   	retq   

0000000000401ace <addval_140>:
  401ace:	8d 87 89 d6 48 d2    	lea    -0x2db72977(%rdi),%eax
  401ad4:	c3                   	retq   

0000000000401ad5 <setval_472>:
  401ad5:	c7 07 89 ca 48 db    	movl   $0xdb48ca89,(%rdi)
  401adb:	c3                   	retq   

0000000000401adc <setval_443>:
  401adc:	c7 07 c9 d6 20 d2    	movl   $0xd220d6c9,(%rdi)
  401ae2:	c3                   	retq   

0000000000401ae3 <getval_360>:
  401ae3:	b8 8b d6 90 90       	mov    $0x9090d68b,%eax
  401ae8:	c3                   	retq   

0000000000401ae9 <getval_492>:
  401ae9:	b8 22 88 ca 90       	mov    $0x90ca8822,%eax
  401aee:	c3                   	retq   

0000000000401aef <getval_421>:
  401aef:	b8 48 89 e0 c3       	mov    $0xc3e08948,%eax
  401af4:	c3                   	retq   

0000000000401af5 <getval_461>:
  401af5:	b8 48 89 e0 90       	mov    $0x90e08948,%eax
  401afa:	c3                   	retq   

0000000000401afb <setval_324>:
  401afb:	c7 07 89 c1 c4 c0    	movl   $0xc0c4c189,(%rdi)
  401b01:	c3                   	retq   

0000000000401b02 <setval_175>:
  401b02:	c7 07 89 c1 90 c3    	movl   $0xc390c189,(%rdi)
  401b08:	c3                   	retq   

0000000000401b09 <getval_114>:
  401b09:	b8 48 89 e0 c2       	mov    $0xc2e08948,%eax
  401b0e:	c3                   	retq   

0000000000401b0f <setval_420>:
  401b0f:	c7 07 89 c1 94 db    	movl   $0xdb94c189,(%rdi)
  401b15:	c3                   	retq   

0000000000401b16 <setval_199>:
  401b16:	c7 07 89 c1 18 d2    	movl   $0xd218c189,(%rdi)
  401b1c:	c3                   	retq   

0000000000401b1d <addval_464>:
  401b1d:	8d 87 8b ca 08 db    	lea    -0x24f73575(%rdi),%eax
  401b23:	c3                   	retq   

0000000000401b24 <getval_138>:
  401b24:	b8 88 c1 20 c9       	mov    $0xc920c188,%eax
  401b29:	c3                   	retq   

0000000000401b2a <addval_204>:
  401b2a:	8d 87 89 d6 38 c9    	lea    -0x36c72977(%rdi),%eax
  401b30:	c3                   	retq   

0000000000401b31 <setval_430>:
  401b31:	c7 07 89 c1 90 c3    	movl   $0xc390c189,(%rdi)
  401b37:	c3                   	retq   

0000000000401b38 <getval_156>:
  401b38:	b8 89 d6 84 d2       	mov    $0xd284d689,%eax
  401b3d:	c3                   	retq   

0000000000401b3e <setval_216>:
  401b3e:	c7 07 48 89 e0 91    	movl   $0x91e08948,(%rdi)
  401b44:	c3                   	retq   

0000000000401b45 <setval_485>:
  401b45:	c7 07 48 89 e0 c7    	movl   $0xc7e08948,(%rdi)
  401b4b:	c3                   	retq   

0000000000401b4c <setval_469>:
  401b4c:	c7 07 48 89 e0 c1    	movl   $0xc1e08948,(%rdi)
  401b52:	c3                   	retq   

0000000000401b53 <addval_423>:
  401b53:	8d 87 89 d6 94 c0    	lea    -0x3f6b2977(%rdi),%eax
  401b59:	c3                   	retq   

0000000000401b5a <addval_297>:
  401b5a:	8d 87 88 c1 38 c0    	lea    -0x3fc73e78(%rdi),%eax
  401b60:	c3                   	retq   

0000000000401b61 <setval_493>:
  401b61:	c7 07 89 d6 18 d2    	movl   $0xd218d689,(%rdi)
  401b67:	c3                   	retq   

0000000000401b68 <getval_435>:
  401b68:	b8 c9 ca 90 90       	mov    $0x9090cac9,%eax
  401b6d:	c3                   	retq   

0000000000401b6e <addval_486>:
  401b6e:	8d 87 89 ca 08 c0    	lea    -0x3ff73577(%rdi),%eax
  401b74:	c3                   	retq   

0000000000401b75 <end_farm>:
  401b75:	b8 01 00 00 00       	mov    $0x1,%eax
  401b7a:	c3                   	retq   

0000000000401b7b <save_char>:
  401b7b:	8b 05 c3 45 20 00    	mov    0x2045c3(%rip),%eax        # 606144 <gets_cnt>
  401b81:	3d ff 03 00 00       	cmp    $0x3ff,%eax
  401b86:	7f 49                	jg     401bd1 <save_char+0x56>
  401b88:	8d 14 40             	lea    (%rax,%rax,2),%edx
  401b8b:	89 f9                	mov    %edi,%ecx
  401b8d:	c0 e9 04             	shr    $0x4,%cl
  401b90:	83 e1 0f             	and    $0xf,%ecx
  401b93:	0f b6 b1 70 37 40 00 	movzbl 0x403770(%rcx),%esi
  401b9a:	48 63 ca             	movslq %edx,%rcx
  401b9d:	40 88 b1 40 55 60 00 	mov    %sil,0x605540(%rcx)
  401ba4:	8d 4a 01             	lea    0x1(%rdx),%ecx
  401ba7:	83 e7 0f             	and    $0xf,%edi
  401baa:	0f b6 b7 70 37 40 00 	movzbl 0x403770(%rdi),%esi
  401bb1:	48 63 c9             	movslq %ecx,%rcx
  401bb4:	40 88 b1 40 55 60 00 	mov    %sil,0x605540(%rcx)
  401bbb:	83 c2 02             	add    $0x2,%edx
  401bbe:	48 63 d2             	movslq %edx,%rdx
  401bc1:	c6 82 40 55 60 00 20 	movb   $0x20,0x605540(%rdx)
  401bc8:	83 c0 01             	add    $0x1,%eax
  401bcb:	89 05 73 45 20 00    	mov    %eax,0x204573(%rip)        # 606144 <gets_cnt>
  401bd1:	f3 c3                	repz retq 

0000000000401bd3 <save_term>:
  401bd3:	8b 05 6b 45 20 00    	mov    0x20456b(%rip),%eax        # 606144 <gets_cnt>
  401bd9:	8d 04 40             	lea    (%rax,%rax,2),%eax
  401bdc:	48 98                	cltq   
  401bde:	c6 80 40 55 60 00 00 	movb   $0x0,0x605540(%rax)
  401be5:	c3                   	retq   

0000000000401be6 <check_fail>:
  401be6:	48 83 ec 08          	sub    $0x8,%rsp
  401bea:	0f be 15 57 45 20 00 	movsbl 0x204557(%rip),%edx        # 606148 <target_prefix>
  401bf1:	41 b8 40 55 60 00    	mov    $0x605540,%r8d
  401bf7:	8b 0d 1b 39 20 00    	mov    0x20391b(%rip),%ecx        # 605518 <check_level>
  401bfd:	be 6b 34 40 00       	mov    $0x40346b,%esi
  401c02:	bf 01 00 00 00       	mov    $0x1,%edi
  401c07:	b8 00 00 00 00       	mov    $0x0,%eax
  401c0c:	e8 0f f2 ff ff       	callq  400e20 <__printf_chk@plt>
  401c11:	bf 01 00 00 00       	mov    $0x1,%edi
  401c16:	e8 55 f2 ff ff       	callq  400e70 <exit@plt>

0000000000401c1b <Gets>:
  401c1b:	41 54                	push   %r12
  401c1d:	55                   	push   %rbp
  401c1e:	53                   	push   %rbx
  401c1f:	49 89 fc             	mov    %rdi,%r12
  401c22:	c7 05 18 45 20 00 00 	movl   $0x0,0x204518(%rip)        # 606144 <gets_cnt>
  401c29:	00 00 00 
  401c2c:	48 89 fb             	mov    %rdi,%rbx
  401c2f:	eb 11                	jmp    401c42 <Gets+0x27>
  401c31:	48 8d 6b 01          	lea    0x1(%rbx),%rbp
  401c35:	88 03                	mov    %al,(%rbx)
  401c37:	0f b6 f8             	movzbl %al,%edi
  401c3a:	e8 3c ff ff ff       	callq  401b7b <save_char>
  401c3f:	48 89 eb             	mov    %rbp,%rbx
  401c42:	48 8b 3d c7 38 20 00 	mov    0x2038c7(%rip),%rdi        # 605510 <infile>
  401c49:	e8 a2 f1 ff ff       	callq  400df0 <_IO_getc@plt>
  401c4e:	83 f8 ff             	cmp    $0xffffffff,%eax
  401c51:	74 05                	je     401c58 <Gets+0x3d>
  401c53:	83 f8 0a             	cmp    $0xa,%eax
  401c56:	75 d9                	jne    401c31 <Gets+0x16>
  401c58:	c6 03 00             	movb   $0x0,(%rbx)
  401c5b:	b8 00 00 00 00       	mov    $0x0,%eax
  401c60:	e8 6e ff ff ff       	callq  401bd3 <save_term>
  401c65:	4c 89 e0             	mov    %r12,%rax
  401c68:	5b                   	pop    %rbx
  401c69:	5d                   	pop    %rbp
  401c6a:	41 5c                	pop    %r12
  401c6c:	c3                   	retq   

0000000000401c6d <notify_server>:
  401c6d:	53                   	push   %rbx
  401c6e:	48 81 ec 10 40 00 00 	sub    $0x4010,%rsp
  401c75:	64 48 8b 04 25 28 00 	mov    %fs:0x28,%rax
  401c7c:	00 00 
  401c7e:	48 89 84 24 08 40 00 	mov    %rax,0x4008(%rsp)
  401c85:	00 
  401c86:	31 c0                	xor    %eax,%eax
  401c88:	83 3d 99 38 20 00 00 	cmpl   $0x0,0x203899(%rip)        # 605528 <is_checker>
  401c8f:	0f 85 aa 01 00 00    	jne    401e3f <notify_server+0x1d2>
  401c95:	89 fb                	mov    %edi,%ebx
  401c97:	8b 05 a7 44 20 00    	mov    0x2044a7(%rip),%eax        # 606144 <gets_cnt>
  401c9d:	83 c0 64             	add    $0x64,%eax
  401ca0:	3d 00 20 00 00       	cmp    $0x2000,%eax
  401ca5:	7e 1e                	jle    401cc5 <notify_server+0x58>
  401ca7:	be a0 35 40 00       	mov    $0x4035a0,%esi
  401cac:	bf 01 00 00 00       	mov    $0x1,%edi
  401cb1:	b8 00 00 00 00       	mov    $0x0,%eax
  401cb6:	e8 65 f1 ff ff       	callq  400e20 <__printf_chk@plt>
  401cbb:	bf 01 00 00 00       	mov    $0x1,%edi
  401cc0:	e8 ab f1 ff ff       	callq  400e70 <exit@plt>
  401cc5:	0f be 05 7c 44 20 00 	movsbl 0x20447c(%rip),%eax        # 606148 <target_prefix>
  401ccc:	83 3d d5 37 20 00 00 	cmpl   $0x0,0x2037d5(%rip)        # 6054a8 <notify>
  401cd3:	74 08                	je     401cdd <notify_server+0x70>
  401cd5:	8b 15 45 38 20 00    	mov    0x203845(%rip),%edx        # 605520 <authkey>
  401cdb:	eb 05                	jmp    401ce2 <notify_server+0x75>
  401cdd:	ba ff ff ff ff       	mov    $0xffffffff,%edx
  401ce2:	85 db                	test   %ebx,%ebx
  401ce4:	74 08                	je     401cee <notify_server+0x81>
  401ce6:	41 b9 81 34 40 00    	mov    $0x403481,%r9d
  401cec:	eb 06                	jmp    401cf4 <notify_server+0x87>
  401cee:	41 b9 86 34 40 00    	mov    $0x403486,%r9d
  401cf4:	68 40 55 60 00       	pushq  $0x605540
  401cf9:	56                   	push   %rsi
  401cfa:	50                   	push   %rax
  401cfb:	52                   	push   %rdx
  401cfc:	44 8b 05 65 34 20 00 	mov    0x203465(%rip),%r8d        # 605168 <target_id>
  401d03:	b9 8b 34 40 00       	mov    $0x40348b,%ecx
  401d08:	ba 00 20 00 00       	mov    $0x2000,%edx
  401d0d:	be 01 00 00 00       	mov    $0x1,%esi
  401d12:	48 8d 7c 24 20       	lea    0x20(%rsp),%rdi
  401d17:	b8 00 00 00 00       	mov    $0x0,%eax
  401d1c:	e8 7f f1 ff ff       	callq  400ea0 <__sprintf_chk@plt>
  401d21:	48 83 c4 20          	add    $0x20,%rsp
  401d25:	83 3d 7c 37 20 00 00 	cmpl   $0x0,0x20377c(%rip)        # 6054a8 <notify>
  401d2c:	0f 84 81 00 00 00    	je     401db3 <notify_server+0x146>
  401d32:	4c 8d 8c 24 00 20 00 	lea    0x2000(%rsp),%r9
  401d39:	00 
  401d3a:	41 b8 00 00 00 00    	mov    $0x0,%r8d
  401d40:	48 89 e1             	mov    %rsp,%rcx
  401d43:	48 8b 15 26 34 20 00 	mov    0x203426(%rip),%rdx        # 605170 <lab>
  401d4a:	48 8b 35 27 34 20 00 	mov    0x203427(%rip),%rsi        # 605178 <course>
  401d51:	48 8b 3d 08 34 20 00 	mov    0x203408(%rip),%rdi        # 605160 <user_id>
  401d58:	e8 0e 11 00 00       	callq  402e6b <driver_post>
  401d5d:	85 c0                	test   %eax,%eax
  401d5f:	79 26                	jns    401d87 <notify_server+0x11a>
  401d61:	48 8d 94 24 00 20 00 	lea    0x2000(%rsp),%rdx
  401d68:	00 
  401d69:	be a7 34 40 00       	mov    $0x4034a7,%esi
  401d6e:	bf 01 00 00 00       	mov    $0x1,%edi
  401d73:	b8 00 00 00 00       	mov    $0x0,%eax
  401d78:	e8 a3 f0 ff ff       	callq  400e20 <__printf_chk@plt>
  401d7d:	bf 01 00 00 00       	mov    $0x1,%edi
  401d82:	e8 e9 f0 ff ff       	callq  400e70 <exit@plt>
  401d87:	85 db                	test   %ebx,%ebx
  401d89:	74 19                	je     401da4 <notify_server+0x137>
  401d8b:	bf d0 35 40 00       	mov    $0x4035d0,%edi
  401d90:	e8 5b ef ff ff       	callq  400cf0 <puts@plt>
  401d95:	bf b3 34 40 00       	mov    $0x4034b3,%edi
  401d9a:	e8 51 ef ff ff       	callq  400cf0 <puts@plt>
  401d9f:	e9 9b 00 00 00       	jmpq   401e3f <notify_server+0x1d2>
  401da4:	bf bd 34 40 00       	mov    $0x4034bd,%edi
  401da9:	e8 42 ef ff ff       	callq  400cf0 <puts@plt>
  401dae:	e9 8c 00 00 00       	jmpq   401e3f <notify_server+0x1d2>
  401db3:	85 db                	test   %ebx,%ebx
  401db5:	74 07                	je     401dbe <notify_server+0x151>
  401db7:	ba 81 34 40 00       	mov    $0x403481,%edx
  401dbc:	eb 05                	jmp    401dc3 <notify_server+0x156>
  401dbe:	ba 86 34 40 00       	mov    $0x403486,%edx
  401dc3:	be 08 36 40 00       	mov    $0x403608,%esi
  401dc8:	bf 01 00 00 00       	mov    $0x1,%edi
  401dcd:	b8 00 00 00 00       	mov    $0x0,%eax
  401dd2:	e8 49 f0 ff ff       	callq  400e20 <__printf_chk@plt>
  401dd7:	48 8b 15 82 33 20 00 	mov    0x203382(%rip),%rdx        # 605160 <user_id>
  401dde:	be c4 34 40 00       	mov    $0x4034c4,%esi
  401de3:	bf 01 00 00 00       	mov    $0x1,%edi
  401de8:	b8 00 00 00 00       	mov    $0x0,%eax
  401ded:	e8 2e f0 ff ff       	callq  400e20 <__printf_chk@plt>
  401df2:	48 8b 15 7f 33 20 00 	mov    0x20337f(%rip),%rdx        # 605178 <course>
  401df9:	be d1 34 40 00       	mov    $0x4034d1,%esi
  401dfe:	bf 01 00 00 00       	mov    $0x1,%edi
  401e03:	b8 00 00 00 00       	mov    $0x0,%eax
  401e08:	e8 13 f0 ff ff       	callq  400e20 <__printf_chk@plt>
  401e0d:	48 8b 15 5c 33 20 00 	mov    0x20335c(%rip),%rdx        # 605170 <lab>
  401e14:	be dd 34 40 00       	mov    $0x4034dd,%esi
  401e19:	bf 01 00 00 00       	mov    $0x1,%edi
  401e1e:	b8 00 00 00 00       	mov    $0x0,%eax
  401e23:	e8 f8 ef ff ff       	callq  400e20 <__printf_chk@plt>
  401e28:	48 89 e2             	mov    %rsp,%rdx
  401e2b:	be e6 34 40 00       	mov    $0x4034e6,%esi
  401e30:	bf 01 00 00 00       	mov    $0x1,%edi
  401e35:	b8 00 00 00 00       	mov    $0x0,%eax
  401e3a:	e8 e1 ef ff ff       	callq  400e20 <__printf_chk@plt>
  401e3f:	48 8b 84 24 08 40 00 	mov    0x4008(%rsp),%rax
  401e46:	00 
  401e47:	64 48 33 04 25 28 00 	xor    %fs:0x28,%rax
  401e4e:	00 00 
  401e50:	74 05                	je     401e57 <notify_server+0x1ea>
  401e52:	e8 b9 ee ff ff       	callq  400d10 <__stack_chk_fail@plt>
  401e57:	48 81 c4 10 40 00 00 	add    $0x4010,%rsp
  401e5e:	5b                   	pop    %rbx
  401e5f:	c3                   	retq   

0000000000401e60 <validate>:
  401e60:	53                   	push   %rbx
  401e61:	89 fb                	mov    %edi,%ebx
  401e63:	83 3d be 36 20 00 00 	cmpl   $0x0,0x2036be(%rip)        # 605528 <is_checker>
  401e6a:	74 6b                	je     401ed7 <validate+0x77>
  401e6c:	39 3d aa 36 20 00    	cmp    %edi,0x2036aa(%rip)        # 60551c <vlevel>
  401e72:	74 14                	je     401e88 <validate+0x28>
  401e74:	bf f2 34 40 00       	mov    $0x4034f2,%edi
  401e79:	e8 72 ee ff ff       	callq  400cf0 <puts@plt>
  401e7e:	b8 00 00 00 00       	mov    $0x0,%eax
  401e83:	e8 5e fd ff ff       	callq  401be6 <check_fail>
  401e88:	8b 15 8a 36 20 00    	mov    0x20368a(%rip),%edx        # 605518 <check_level>
  401e8e:	39 d7                	cmp    %edx,%edi
  401e90:	74 20                	je     401eb2 <validate+0x52>
  401e92:	89 f9                	mov    %edi,%ecx
  401e94:	be 30 36 40 00       	mov    $0x403630,%esi
  401e99:	bf 01 00 00 00       	mov    $0x1,%edi
  401e9e:	b8 00 00 00 00       	mov    $0x0,%eax
  401ea3:	e8 78 ef ff ff       	callq  400e20 <__printf_chk@plt>
  401ea8:	b8 00 00 00 00       	mov    $0x0,%eax
  401ead:	e8 34 fd ff ff       	callq  401be6 <check_fail>
  401eb2:	0f be 15 8f 42 20 00 	movsbl 0x20428f(%rip),%edx        # 606148 <target_prefix>
  401eb9:	41 b8 40 55 60 00    	mov    $0x605540,%r8d
  401ebf:	89 f9                	mov    %edi,%ecx
  401ec1:	be 10 35 40 00       	mov    $0x403510,%esi
  401ec6:	bf 01 00 00 00       	mov    $0x1,%edi
  401ecb:	b8 00 00 00 00       	mov    $0x0,%eax
  401ed0:	e8 4b ef ff ff       	callq  400e20 <__printf_chk@plt>
  401ed5:	eb 49                	jmp    401f20 <validate+0xc0>
  401ed7:	3b 3d 3f 36 20 00    	cmp    0x20363f(%rip),%edi        # 60551c <vlevel>
  401edd:	74 18                	je     401ef7 <validate+0x97>
  401edf:	bf f2 34 40 00       	mov    $0x4034f2,%edi
  401ee4:	e8 07 ee ff ff       	callq  400cf0 <puts@plt>
  401ee9:	89 de                	mov    %ebx,%esi
  401eeb:	bf 00 00 00 00       	mov    $0x0,%edi
  401ef0:	e8 78 fd ff ff       	callq  401c6d <notify_server>
  401ef5:	eb 29                	jmp    401f20 <validate+0xc0>
  401ef7:	0f be 0d 4a 42 20 00 	movsbl 0x20424a(%rip),%ecx        # 606148 <target_prefix>
  401efe:	89 fa                	mov    %edi,%edx
  401f00:	be 58 36 40 00       	mov    $0x403658,%esi
  401f05:	bf 01 00 00 00       	mov    $0x1,%edi
  401f0a:	b8 00 00 00 00       	mov    $0x0,%eax
  401f0f:	e8 0c ef ff ff       	callq  400e20 <__printf_chk@plt>
  401f14:	89 de                	mov    %ebx,%esi
  401f16:	bf 01 00 00 00       	mov    $0x1,%edi
  401f1b:	e8 4d fd ff ff       	callq  401c6d <notify_server>
  401f20:	5b                   	pop    %rbx
  401f21:	c3                   	retq   

0000000000401f22 <fail>:
  401f22:	48 83 ec 08          	sub    $0x8,%rsp
  401f26:	83 3d fb 35 20 00 00 	cmpl   $0x0,0x2035fb(%rip)        # 605528 <is_checker>
  401f2d:	74 0a                	je     401f39 <fail+0x17>
  401f2f:	b8 00 00 00 00       	mov    $0x0,%eax
  401f34:	e8 ad fc ff ff       	callq  401be6 <check_fail>
  401f39:	89 fe                	mov    %edi,%esi
  401f3b:	bf 00 00 00 00       	mov    $0x0,%edi
  401f40:	e8 28 fd ff ff       	callq  401c6d <notify_server>
  401f45:	48 83 c4 08          	add    $0x8,%rsp
  401f49:	c3                   	retq   

0000000000401f4a <bushandler>:
  401f4a:	48 83 ec 08          	sub    $0x8,%rsp
  401f4e:	83 3d d3 35 20 00 00 	cmpl   $0x0,0x2035d3(%rip)        # 605528 <is_checker>
  401f55:	74 14                	je     401f6b <bushandler+0x21>
  401f57:	bf 25 35 40 00       	mov    $0x403525,%edi
  401f5c:	e8 8f ed ff ff       	callq  400cf0 <puts@plt>
  401f61:	b8 00 00 00 00       	mov    $0x0,%eax
  401f66:	e8 7b fc ff ff       	callq  401be6 <check_fail>
  401f6b:	bf 90 36 40 00       	mov    $0x403690,%edi
  401f70:	e8 7b ed ff ff       	callq  400cf0 <puts@plt>
  401f75:	bf 2f 35 40 00       	mov    $0x40352f,%edi
  401f7a:	e8 71 ed ff ff       	callq  400cf0 <puts@plt>
  401f7f:	be 00 00 00 00       	mov    $0x0,%esi
  401f84:	bf 00 00 00 00       	mov    $0x0,%edi
  401f89:	e8 df fc ff ff       	callq  401c6d <notify_server>
  401f8e:	bf 01 00 00 00       	mov    $0x1,%edi
  401f93:	e8 d8 ee ff ff       	callq  400e70 <exit@plt>

0000000000401f98 <seghandler>:
  401f98:	48 83 ec 08          	sub    $0x8,%rsp
  401f9c:	83 3d 85 35 20 00 00 	cmpl   $0x0,0x203585(%rip)        # 605528 <is_checker>
  401fa3:	74 14                	je     401fb9 <seghandler+0x21>
  401fa5:	bf 45 35 40 00       	mov    $0x403545,%edi
  401faa:	e8 41 ed ff ff       	callq  400cf0 <puts@plt>
  401faf:	b8 00 00 00 00       	mov    $0x0,%eax
  401fb4:	e8 2d fc ff ff       	callq  401be6 <check_fail>
  401fb9:	bf b0 36 40 00       	mov    $0x4036b0,%edi
  401fbe:	e8 2d ed ff ff       	callq  400cf0 <puts@plt>
  401fc3:	bf 2f 35 40 00       	mov    $0x40352f,%edi
  401fc8:	e8 23 ed ff ff       	callq  400cf0 <puts@plt>
  401fcd:	be 00 00 00 00       	mov    $0x0,%esi
  401fd2:	bf 00 00 00 00       	mov    $0x0,%edi
  401fd7:	e8 91 fc ff ff       	callq  401c6d <notify_server>
  401fdc:	bf 01 00 00 00       	mov    $0x1,%edi
  401fe1:	e8 8a ee ff ff       	callq  400e70 <exit@plt>

0000000000401fe6 <illegalhandler>:
  401fe6:	48 83 ec 08          	sub    $0x8,%rsp
  401fea:	83 3d 37 35 20 00 00 	cmpl   $0x0,0x203537(%rip)        # 605528 <is_checker>
  401ff1:	74 14                	je     402007 <illegalhandler+0x21>
  401ff3:	bf 58 35 40 00       	mov    $0x403558,%edi
  401ff8:	e8 f3 ec ff ff       	callq  400cf0 <puts@plt>
  401ffd:	b8 00 00 00 00       	mov    $0x0,%eax
  402002:	e8 df fb ff ff       	callq  401be6 <check_fail>
  402007:	bf d8 36 40 00       	mov    $0x4036d8,%edi
  40200c:	e8 df ec ff ff       	callq  400cf0 <puts@plt>
  402011:	bf 2f 35 40 00       	mov    $0x40352f,%edi
  402016:	e8 d5 ec ff ff       	callq  400cf0 <puts@plt>
  40201b:	be 00 00 00 00       	mov    $0x0,%esi
  402020:	bf 00 00 00 00       	mov    $0x0,%edi
  402025:	e8 43 fc ff ff       	callq  401c6d <notify_server>
  40202a:	bf 01 00 00 00       	mov    $0x1,%edi
  40202f:	e8 3c ee ff ff       	callq  400e70 <exit@plt>

0000000000402034 <sigalrmhandler>:
  402034:	48 83 ec 08          	sub    $0x8,%rsp
  402038:	83 3d e9 34 20 00 00 	cmpl   $0x0,0x2034e9(%rip)        # 605528 <is_checker>
  40203f:	74 14                	je     402055 <sigalrmhandler+0x21>
  402041:	bf 6c 35 40 00       	mov    $0x40356c,%edi
  402046:	e8 a5 ec ff ff       	callq  400cf0 <puts@plt>
  40204b:	b8 00 00 00 00       	mov    $0x0,%eax
  402050:	e8 91 fb ff ff       	callq  401be6 <check_fail>
  402055:	ba 05 00 00 00       	mov    $0x5,%edx
  40205a:	be 08 37 40 00       	mov    $0x403708,%esi
  40205f:	bf 01 00 00 00       	mov    $0x1,%edi
  402064:	b8 00 00 00 00       	mov    $0x0,%eax
  402069:	e8 b2 ed ff ff       	callq  400e20 <__printf_chk@plt>
  40206e:	be 00 00 00 00       	mov    $0x0,%esi
  402073:	bf 00 00 00 00       	mov    $0x0,%edi
  402078:	e8 f0 fb ff ff       	callq  401c6d <notify_server>
  40207d:	bf 01 00 00 00       	mov    $0x1,%edi
  402082:	e8 e9 ed ff ff       	callq  400e70 <exit@plt>

0000000000402087 <launch>:
  402087:	55                   	push   %rbp
  402088:	48 89 e5             	mov    %rsp,%rbp
  40208b:	48 83 ec 10          	sub    $0x10,%rsp
  40208f:	48 89 fa             	mov    %rdi,%rdx
  402092:	64 48 8b 04 25 28 00 	mov    %fs:0x28,%rax
  402099:	00 00 
  40209b:	48 89 45 f8          	mov    %rax,-0x8(%rbp)
  40209f:	31 c0                	xor    %eax,%eax
  4020a1:	48 8d 47 1e          	lea    0x1e(%rdi),%rax
  4020a5:	48 83 e0 f0          	and    $0xfffffffffffffff0,%rax
  4020a9:	48 29 c4             	sub    %rax,%rsp
  4020ac:	48 8d 7c 24 0f       	lea    0xf(%rsp),%rdi
  4020b1:	48 83 e7 f0          	and    $0xfffffffffffffff0,%rdi
  4020b5:	be f4 00 00 00       	mov    $0xf4,%esi
  4020ba:	e8 71 ec ff ff       	callq  400d30 <memset@plt>
  4020bf:	48 8b 05 fa 33 20 00 	mov    0x2033fa(%rip),%rax        # 6054c0 <stdin@@GLIBC_2.2.5>
  4020c6:	48 39 05 43 34 20 00 	cmp    %rax,0x203443(%rip)        # 605510 <infile>
  4020cd:	75 14                	jne    4020e3 <launch+0x5c>
  4020cf:	be 74 35 40 00       	mov    $0x403574,%esi
  4020d4:	bf 01 00 00 00       	mov    $0x1,%edi
  4020d9:	b8 00 00 00 00       	mov    $0x0,%eax
  4020de:	e8 3d ed ff ff       	callq  400e20 <__printf_chk@plt>
  4020e3:	c7 05 2f 34 20 00 00 	movl   $0x0,0x20342f(%rip)        # 60551c <vlevel>
  4020ea:	00 00 00 
  4020ed:	b8 00 00 00 00       	mov    $0x0,%eax
  4020f2:	e8 37 f9 ff ff       	callq  401a2e <test>
  4020f7:	83 3d 2a 34 20 00 00 	cmpl   $0x0,0x20342a(%rip)        # 605528 <is_checker>
  4020fe:	74 14                	je     402114 <launch+0x8d>
  402100:	bf 81 35 40 00       	mov    $0x403581,%edi
  402105:	e8 e6 eb ff ff       	callq  400cf0 <puts@plt>
  40210a:	b8 00 00 00 00       	mov    $0x0,%eax
  40210f:	e8 d2 fa ff ff       	callq  401be6 <check_fail>
  402114:	bf 8c 35 40 00       	mov    $0x40358c,%edi
  402119:	e8 d2 eb ff ff       	callq  400cf0 <puts@plt>
  40211e:	48 8b 45 f8          	mov    -0x8(%rbp),%rax
  402122:	64 48 33 04 25 28 00 	xor    %fs:0x28,%rax
  402129:	00 00 
  40212b:	74 05                	je     402132 <launch+0xab>
  40212d:	e8 de eb ff ff       	callq  400d10 <__stack_chk_fail@plt>
  402132:	c9                   	leaveq 
  402133:	c3                   	retq   

0000000000402134 <stable_launch>:
  402134:	53                   	push   %rbx
  402135:	48 89 3d cc 33 20 00 	mov    %rdi,0x2033cc(%rip)        # 605508 <global_offset>
  40213c:	41 b9 00 00 00 00    	mov    $0x0,%r9d
  402142:	41 b8 00 00 00 00    	mov    $0x0,%r8d
  402148:	b9 32 01 00 00       	mov    $0x132,%ecx
  40214d:	ba 07 00 00 00       	mov    $0x7,%edx
  402152:	be 00 00 10 00       	mov    $0x100000,%esi
  402157:	bf 00 60 58 55       	mov    $0x55586000,%edi
  40215c:	e8 bf eb ff ff       	callq  400d20 <mmap@plt>
  402161:	48 89 c3             	mov    %rax,%rbx
  402164:	48 3d 00 60 58 55    	cmp    $0x55586000,%rax
  40216a:	74 37                	je     4021a3 <stable_launch+0x6f>
  40216c:	be 00 00 10 00       	mov    $0x100000,%esi
  402171:	48 89 c7             	mov    %rax,%rdi
  402174:	e8 97 ec ff ff       	callq  400e10 <munmap@plt>
  402179:	b9 00 60 58 55       	mov    $0x55586000,%ecx
  40217e:	ba 40 37 40 00       	mov    $0x403740,%edx
  402183:	be 01 00 00 00       	mov    $0x1,%esi
  402188:	48 8b 3d 51 33 20 00 	mov    0x203351(%rip),%rdi        # 6054e0 <stderr@@GLIBC_2.2.5>
  40218f:	b8 00 00 00 00       	mov    $0x0,%eax
  402194:	e8 f7 ec ff ff       	callq  400e90 <__fprintf_chk@plt>
  402199:	bf 01 00 00 00       	mov    $0x1,%edi
  40219e:	e8 cd ec ff ff       	callq  400e70 <exit@plt>
  4021a3:	48 8d 90 f8 ff 0f 00 	lea    0xffff8(%rax),%rdx
  4021aa:	48 89 15 9f 3f 20 00 	mov    %rdx,0x203f9f(%rip)        # 606150 <stack_top>
  4021b1:	48 89 e0             	mov    %rsp,%rax
  4021b4:	48 89 d4             	mov    %rdx,%rsp
  4021b7:	48 89 c2             	mov    %rax,%rdx
  4021ba:	48 89 15 3f 33 20 00 	mov    %rdx,0x20333f(%rip)        # 605500 <global_save_stack>
  4021c1:	48 8b 3d 40 33 20 00 	mov    0x203340(%rip),%rdi        # 605508 <global_offset>
  4021c8:	e8 ba fe ff ff       	callq  402087 <launch>
  4021cd:	48 8b 05 2c 33 20 00 	mov    0x20332c(%rip),%rax        # 605500 <global_save_stack>
  4021d4:	48 89 c4             	mov    %rax,%rsp
  4021d7:	be 00 00 10 00       	mov    $0x100000,%esi
  4021dc:	48 89 df             	mov    %rbx,%rdi
  4021df:	e8 2c ec ff ff       	callq  400e10 <munmap@plt>
  4021e4:	5b                   	pop    %rbx
  4021e5:	c3                   	retq   

00000000004021e6 <rio_readinitb>:
  4021e6:	89 37                	mov    %esi,(%rdi)
  4021e8:	c7 47 04 00 00 00 00 	movl   $0x0,0x4(%rdi)
  4021ef:	48 8d 47 10          	lea    0x10(%rdi),%rax
  4021f3:	48 89 47 08          	mov    %rax,0x8(%rdi)
  4021f7:	c3                   	retq   

00000000004021f8 <sigalrm_handler>:
  4021f8:	48 83 ec 08          	sub    $0x8,%rsp
  4021fc:	b9 00 00 00 00       	mov    $0x0,%ecx
  402201:	ba 80 37 40 00       	mov    $0x403780,%edx
  402206:	be 01 00 00 00       	mov    $0x1,%esi
  40220b:	48 8b 3d ce 32 20 00 	mov    0x2032ce(%rip),%rdi        # 6054e0 <stderr@@GLIBC_2.2.5>
  402212:	b8 00 00 00 00       	mov    $0x0,%eax
  402217:	e8 74 ec ff ff       	callq  400e90 <__fprintf_chk@plt>
  40221c:	bf 01 00 00 00       	mov    $0x1,%edi
  402221:	e8 4a ec ff ff       	callq  400e70 <exit@plt>

0000000000402226 <rio_writen>:
  402226:	41 55                	push   %r13
  402228:	41 54                	push   %r12
  40222a:	55                   	push   %rbp
  40222b:	53                   	push   %rbx
  40222c:	48 83 ec 08          	sub    $0x8,%rsp
  402230:	41 89 fc             	mov    %edi,%r12d
  402233:	48 89 f5             	mov    %rsi,%rbp
  402236:	49 89 d5             	mov    %rdx,%r13
  402239:	48 89 d3             	mov    %rdx,%rbx
  40223c:	eb 28                	jmp    402266 <rio_writen+0x40>
  40223e:	48 89 da             	mov    %rbx,%rdx
  402241:	48 89 ee             	mov    %rbp,%rsi
  402244:	44 89 e7             	mov    %r12d,%edi
  402247:	e8 b4 ea ff ff       	callq  400d00 <write@plt>
  40224c:	48 85 c0             	test   %rax,%rax
  40224f:	7f 0f                	jg     402260 <rio_writen+0x3a>
  402251:	e8 5a ea ff ff       	callq  400cb0 <__errno_location@plt>
  402256:	83 38 04             	cmpl   $0x4,(%rax)
  402259:	75 15                	jne    402270 <rio_writen+0x4a>
  40225b:	b8 00 00 00 00       	mov    $0x0,%eax
  402260:	48 29 c3             	sub    %rax,%rbx
  402263:	48 01 c5             	add    %rax,%rbp
  402266:	48 85 db             	test   %rbx,%rbx
  402269:	75 d3                	jne    40223e <rio_writen+0x18>
  40226b:	4c 89 e8             	mov    %r13,%rax
  40226e:	eb 07                	jmp    402277 <rio_writen+0x51>
  402270:	48 c7 c0 ff ff ff ff 	mov    $0xffffffffffffffff,%rax
  402277:	48 83 c4 08          	add    $0x8,%rsp
  40227b:	5b                   	pop    %rbx
  40227c:	5d                   	pop    %rbp
  40227d:	41 5c                	pop    %r12
  40227f:	41 5d                	pop    %r13
  402281:	c3                   	retq   

0000000000402282 <rio_read>:
  402282:	41 55                	push   %r13
  402284:	41 54                	push   %r12
  402286:	55                   	push   %rbp
  402287:	53                   	push   %rbx
  402288:	48 83 ec 08          	sub    $0x8,%rsp
  40228c:	48 89 fb             	mov    %rdi,%rbx
  40228f:	49 89 f5             	mov    %rsi,%r13
  402292:	49 89 d4             	mov    %rdx,%r12
  402295:	eb 2e                	jmp    4022c5 <rio_read+0x43>
  402297:	48 8d 6b 10          	lea    0x10(%rbx),%rbp
  40229b:	8b 3b                	mov    (%rbx),%edi
  40229d:	ba 00 20 00 00       	mov    $0x2000,%edx
  4022a2:	48 89 ee             	mov    %rbp,%rsi
  4022a5:	e8 b6 ea ff ff       	callq  400d60 <read@plt>
  4022aa:	89 43 04             	mov    %eax,0x4(%rbx)
  4022ad:	85 c0                	test   %eax,%eax
  4022af:	79 0c                	jns    4022bd <rio_read+0x3b>
  4022b1:	e8 fa e9 ff ff       	callq  400cb0 <__errno_location@plt>
  4022b6:	83 38 04             	cmpl   $0x4,(%rax)
  4022b9:	74 0a                	je     4022c5 <rio_read+0x43>
  4022bb:	eb 37                	jmp    4022f4 <rio_read+0x72>
  4022bd:	85 c0                	test   %eax,%eax
  4022bf:	74 3c                	je     4022fd <rio_read+0x7b>
  4022c1:	48 89 6b 08          	mov    %rbp,0x8(%rbx)
  4022c5:	8b 6b 04             	mov    0x4(%rbx),%ebp
  4022c8:	85 ed                	test   %ebp,%ebp
  4022ca:	7e cb                	jle    402297 <rio_read+0x15>
  4022cc:	89 e8                	mov    %ebp,%eax
  4022ce:	49 39 c4             	cmp    %rax,%r12
  4022d1:	77 03                	ja     4022d6 <rio_read+0x54>
  4022d3:	44 89 e5             	mov    %r12d,%ebp
  4022d6:	4c 63 e5             	movslq %ebp,%r12
  4022d9:	48 8b 73 08          	mov    0x8(%rbx),%rsi
  4022dd:	4c 89 e2             	mov    %r12,%rdx
  4022e0:	4c 89 ef             	mov    %r13,%rdi
  4022e3:	e8 d8 ea ff ff       	callq  400dc0 <memcpy@plt>
  4022e8:	4c 01 63 08          	add    %r12,0x8(%rbx)
  4022ec:	29 6b 04             	sub    %ebp,0x4(%rbx)
  4022ef:	4c 89 e0             	mov    %r12,%rax
  4022f2:	eb 0e                	jmp    402302 <rio_read+0x80>
  4022f4:	48 c7 c0 ff ff ff ff 	mov    $0xffffffffffffffff,%rax
  4022fb:	eb 05                	jmp    402302 <rio_read+0x80>
  4022fd:	b8 00 00 00 00       	mov    $0x0,%eax
  402302:	48 83 c4 08          	add    $0x8,%rsp
  402306:	5b                   	pop    %rbx
  402307:	5d                   	pop    %rbp
  402308:	41 5c                	pop    %r12
  40230a:	41 5d                	pop    %r13
  40230c:	c3                   	retq   

000000000040230d <rio_readlineb>:
  40230d:	41 55                	push   %r13
  40230f:	41 54                	push   %r12
  402311:	55                   	push   %rbp
  402312:	53                   	push   %rbx
  402313:	48 83 ec 18          	sub    $0x18,%rsp
  402317:	49 89 fd             	mov    %rdi,%r13
  40231a:	48 89 f5             	mov    %rsi,%rbp
  40231d:	49 89 d4             	mov    %rdx,%r12
  402320:	64 48 8b 04 25 28 00 	mov    %fs:0x28,%rax
  402327:	00 00 
  402329:	48 89 44 24 08       	mov    %rax,0x8(%rsp)
  40232e:	31 c0                	xor    %eax,%eax
  402330:	bb 01 00 00 00       	mov    $0x1,%ebx
  402335:	eb 3f                	jmp    402376 <rio_readlineb+0x69>
  402337:	ba 01 00 00 00       	mov    $0x1,%edx
  40233c:	48 8d 74 24 07       	lea    0x7(%rsp),%rsi
  402341:	4c 89 ef             	mov    %r13,%rdi
  402344:	e8 39 ff ff ff       	callq  402282 <rio_read>
  402349:	83 f8 01             	cmp    $0x1,%eax
  40234c:	75 15                	jne    402363 <rio_readlineb+0x56>
  40234e:	48 8d 45 01          	lea    0x1(%rbp),%rax
  402352:	0f b6 54 24 07       	movzbl 0x7(%rsp),%edx
  402357:	88 55 00             	mov    %dl,0x0(%rbp)
  40235a:	80 7c 24 07 0a       	cmpb   $0xa,0x7(%rsp)
  40235f:	75 0e                	jne    40236f <rio_readlineb+0x62>
  402361:	eb 1a                	jmp    40237d <rio_readlineb+0x70>
  402363:	85 c0                	test   %eax,%eax
  402365:	75 22                	jne    402389 <rio_readlineb+0x7c>
  402367:	48 83 fb 01          	cmp    $0x1,%rbx
  40236b:	75 13                	jne    402380 <rio_readlineb+0x73>
  40236d:	eb 23                	jmp    402392 <rio_readlineb+0x85>
  40236f:	48 83 c3 01          	add    $0x1,%rbx
  402373:	48 89 c5             	mov    %rax,%rbp
  402376:	4c 39 e3             	cmp    %r12,%rbx
  402379:	72 bc                	jb     402337 <rio_readlineb+0x2a>
  40237b:	eb 03                	jmp    402380 <rio_readlineb+0x73>
  40237d:	48 89 c5             	mov    %rax,%rbp
  402380:	c6 45 00 00          	movb   $0x0,0x0(%rbp)
  402384:	48 89 d8             	mov    %rbx,%rax
  402387:	eb 0e                	jmp    402397 <rio_readlineb+0x8a>
  402389:	48 c7 c0 ff ff ff ff 	mov    $0xffffffffffffffff,%rax
  402390:	eb 05                	jmp    402397 <rio_readlineb+0x8a>
  402392:	b8 00 00 00 00       	mov    $0x0,%eax
  402397:	48 8b 4c 24 08       	mov    0x8(%rsp),%rcx
  40239c:	64 48 33 0c 25 28 00 	xor    %fs:0x28,%rcx
  4023a3:	00 00 
  4023a5:	74 05                	je     4023ac <rio_readlineb+0x9f>
  4023a7:	e8 64 e9 ff ff       	callq  400d10 <__stack_chk_fail@plt>
  4023ac:	48 83 c4 18          	add    $0x18,%rsp
  4023b0:	5b                   	pop    %rbx
  4023b1:	5d                   	pop    %rbp
  4023b2:	41 5c                	pop    %r12
  4023b4:	41 5d                	pop    %r13
  4023b6:	c3                   	retq   

00000000004023b7 <urlencode>:
  4023b7:	41 54                	push   %r12
  4023b9:	55                   	push   %rbp
  4023ba:	53                   	push   %rbx
  4023bb:	48 83 ec 10          	sub    $0x10,%rsp
  4023bf:	48 89 fb             	mov    %rdi,%rbx
  4023c2:	48 89 f5             	mov    %rsi,%rbp
  4023c5:	64 48 8b 04 25 28 00 	mov    %fs:0x28,%rax
  4023cc:	00 00 
  4023ce:	48 89 44 24 08       	mov    %rax,0x8(%rsp)
  4023d3:	31 c0                	xor    %eax,%eax
  4023d5:	48 c7 c1 ff ff ff ff 	mov    $0xffffffffffffffff,%rcx
  4023dc:	f2 ae                	repnz scas %es:(%rdi),%al
  4023de:	48 f7 d1             	not    %rcx
  4023e1:	8d 41 ff             	lea    -0x1(%rcx),%eax
  4023e4:	e9 aa 00 00 00       	jmpq   402493 <urlencode+0xdc>
  4023e9:	44 0f b6 03          	movzbl (%rbx),%r8d
  4023ed:	41 80 f8 2a          	cmp    $0x2a,%r8b
  4023f1:	0f 94 c2             	sete   %dl
  4023f4:	41 80 f8 2d          	cmp    $0x2d,%r8b
  4023f8:	0f 94 c0             	sete   %al
  4023fb:	08 c2                	or     %al,%dl
  4023fd:	75 24                	jne    402423 <urlencode+0x6c>
  4023ff:	41 80 f8 2e          	cmp    $0x2e,%r8b
  402403:	74 1e                	je     402423 <urlencode+0x6c>
  402405:	41 80 f8 5f          	cmp    $0x5f,%r8b
  402409:	74 18                	je     402423 <urlencode+0x6c>
  40240b:	41 8d 40 d0          	lea    -0x30(%r8),%eax
  40240f:	3c 09                	cmp    $0x9,%al
  402411:	76 10                	jbe    402423 <urlencode+0x6c>
  402413:	41 8d 40 bf          	lea    -0x41(%r8),%eax
  402417:	3c 19                	cmp    $0x19,%al
  402419:	76 08                	jbe    402423 <urlencode+0x6c>
  40241b:	41 8d 40 9f          	lea    -0x61(%r8),%eax
  40241f:	3c 19                	cmp    $0x19,%al
  402421:	77 0a                	ja     40242d <urlencode+0x76>
  402423:	44 88 45 00          	mov    %r8b,0x0(%rbp)
  402427:	48 8d 6d 01          	lea    0x1(%rbp),%rbp
  40242b:	eb 5f                	jmp    40248c <urlencode+0xd5>
  40242d:	41 80 f8 20          	cmp    $0x20,%r8b
  402431:	75 0a                	jne    40243d <urlencode+0x86>
  402433:	c6 45 00 2b          	movb   $0x2b,0x0(%rbp)
  402437:	48 8d 6d 01          	lea    0x1(%rbp),%rbp
  40243b:	eb 4f                	jmp    40248c <urlencode+0xd5>
  40243d:	41 8d 40 e0          	lea    -0x20(%r8),%eax
  402441:	3c 5f                	cmp    $0x5f,%al
  402443:	0f 96 c2             	setbe  %dl
  402446:	41 80 f8 09          	cmp    $0x9,%r8b
  40244a:	0f 94 c0             	sete   %al
  40244d:	08 c2                	or     %al,%dl
  40244f:	74 50                	je     4024a1 <urlencode+0xea>
  402451:	45 0f b6 c0          	movzbl %r8b,%r8d
  402455:	b9 38 38 40 00       	mov    $0x403838,%ecx
  40245a:	ba 08 00 00 00       	mov    $0x8,%edx
  40245f:	be 01 00 00 00       	mov    $0x1,%esi
  402464:	48 89 e7             	mov    %rsp,%rdi
  402467:	b8 00 00 00 00       	mov    $0x0,%eax
  40246c:	e8 2f ea ff ff       	callq  400ea0 <__sprintf_chk@plt>
  402471:	0f b6 04 24          	movzbl (%rsp),%eax
  402475:	88 45 00             	mov    %al,0x0(%rbp)
  402478:	0f b6 44 24 01       	movzbl 0x1(%rsp),%eax
  40247d:	88 45 01             	mov    %al,0x1(%rbp)
  402480:	0f b6 44 24 02       	movzbl 0x2(%rsp),%eax
  402485:	88 45 02             	mov    %al,0x2(%rbp)
  402488:	48 8d 6d 03          	lea    0x3(%rbp),%rbp
  40248c:	48 83 c3 01          	add    $0x1,%rbx
  402490:	44 89 e0             	mov    %r12d,%eax
  402493:	44 8d 60 ff          	lea    -0x1(%rax),%r12d
  402497:	85 c0                	test   %eax,%eax
  402499:	0f 85 4a ff ff ff    	jne    4023e9 <urlencode+0x32>
  40249f:	eb 05                	jmp    4024a6 <urlencode+0xef>
  4024a1:	b8 ff ff ff ff       	mov    $0xffffffff,%eax
  4024a6:	48 8b 74 24 08       	mov    0x8(%rsp),%rsi
  4024ab:	64 48 33 34 25 28 00 	xor    %fs:0x28,%rsi
  4024b2:	00 00 
  4024b4:	74 05                	je     4024bb <urlencode+0x104>
  4024b6:	e8 55 e8 ff ff       	callq  400d10 <__stack_chk_fail@plt>
  4024bb:	48 83 c4 10          	add    $0x10,%rsp
  4024bf:	5b                   	pop    %rbx
  4024c0:	5d                   	pop    %rbp
  4024c1:	41 5c                	pop    %r12
  4024c3:	c3                   	retq   

00000000004024c4 <submitr>:
  4024c4:	41 57                	push   %r15
  4024c6:	41 56                	push   %r14
  4024c8:	41 55                	push   %r13
  4024ca:	41 54                	push   %r12
  4024cc:	55                   	push   %rbp
  4024cd:	53                   	push   %rbx
  4024ce:	48 81 ec 58 a0 00 00 	sub    $0xa058,%rsp
  4024d5:	49 89 fd             	mov    %rdi,%r13
  4024d8:	89 74 24 0c          	mov    %esi,0xc(%rsp)
  4024dc:	48 89 14 24          	mov    %rdx,(%rsp)
  4024e0:	49 89 ce             	mov    %rcx,%r14
  4024e3:	4d 89 c7             	mov    %r8,%r15
  4024e6:	4d 89 cc             	mov    %r9,%r12
  4024e9:	48 8b 9c 24 90 a0 00 	mov    0xa090(%rsp),%rbx
  4024f0:	00 
  4024f1:	64 48 8b 04 25 28 00 	mov    %fs:0x28,%rax
  4024f8:	00 00 
  4024fa:	48 89 84 24 48 a0 00 	mov    %rax,0xa048(%rsp)
  402501:	00 
  402502:	31 c0                	xor    %eax,%eax
  402504:	c7 44 24 1c 00 00 00 	movl   $0x0,0x1c(%rsp)
  40250b:	00 
  40250c:	ba 00 00 00 00       	mov    $0x0,%edx
  402511:	be 01 00 00 00       	mov    $0x1,%esi
  402516:	bf 02 00 00 00       	mov    $0x2,%edi
  40251b:	e8 90 e9 ff ff       	callq  400eb0 <socket@plt>
  402520:	85 c0                	test   %eax,%eax
  402522:	79 4e                	jns    402572 <submitr+0xae>
  402524:	48 b8 45 72 72 6f 72 	movabs $0x43203a726f727245,%rax
  40252b:	3a 20 43 
  40252e:	48 89 03             	mov    %rax,(%rbx)
  402531:	48 b8 6c 69 65 6e 74 	movabs $0x6e7520746e65696c,%rax
  402538:	20 75 6e 
  40253b:	48 89 43 08          	mov    %rax,0x8(%rbx)
  40253f:	48 b8 61 62 6c 65 20 	movabs $0x206f7420656c6261,%rax
  402546:	74 6f 20 
  402549:	48 89 43 10          	mov    %rax,0x10(%rbx)
  40254d:	48 b8 63 72 65 61 74 	movabs $0x7320657461657263,%rax
  402554:	65 20 73 
  402557:	48 89 43 18          	mov    %rax,0x18(%rbx)
  40255b:	c7 43 20 6f 63 6b 65 	movl   $0x656b636f,0x20(%rbx)
  402562:	66 c7 43 24 74 00    	movw   $0x74,0x24(%rbx)
  402568:	b8 ff ff ff ff       	mov    $0xffffffff,%eax
  40256d:	e9 b3 06 00 00       	jmpq   402c25 <submitr+0x761>
  402572:	89 c5                	mov    %eax,%ebp
  402574:	4c 89 ef             	mov    %r13,%rdi
  402577:	e8 14 e8 ff ff       	callq  400d90 <gethostbyname@plt>
  40257c:	48 85 c0             	test   %rax,%rax
  40257f:	75 75                	jne    4025f6 <submitr+0x132>
  402581:	48 b8 45 72 72 6f 72 	movabs $0x44203a726f727245,%rax
  402588:	3a 20 44 
  40258b:	48 89 03             	mov    %rax,(%rbx)
  40258e:	48 b8 4e 53 20 69 73 	movabs $0x6e7520736920534e,%rax
  402595:	20 75 6e 
  402598:	48 89 43 08          	mov    %rax,0x8(%rbx)
  40259c:	48 b8 61 62 6c 65 20 	movabs $0x206f7420656c6261,%rax
  4025a3:	74 6f 20 
  4025a6:	48 89 43 10          	mov    %rax,0x10(%rbx)
  4025aa:	48 b8 72 65 73 6f 6c 	movabs $0x2065766c6f736572,%rax
  4025b1:	76 65 20 
  4025b4:	48 89 43 18          	mov    %rax,0x18(%rbx)
  4025b8:	48 b8 41 75 74 6f 6c 	movabs $0x2062616c6f747541,%rax
  4025bf:	61 62 20 
  4025c2:	48 89 43 20          	mov    %rax,0x20(%rbx)
  4025c6:	48 b8 73 65 72 76 65 	movabs $0x6120726576726573,%rax
  4025cd:	72 20 61 
  4025d0:	48 89 43 28          	mov    %rax,0x28(%rbx)
  4025d4:	c7 43 30 64 64 72 65 	movl   $0x65726464,0x30(%rbx)
  4025db:	66 c7 43 34 73 73    	movw   $0x7373,0x34(%rbx)
  4025e1:	c6 43 36 00          	movb   $0x0,0x36(%rbx)
  4025e5:	89 ef                	mov    %ebp,%edi
  4025e7:	e8 64 e7 ff ff       	callq  400d50 <close@plt>
  4025ec:	b8 ff ff ff ff       	mov    $0xffffffff,%eax
  4025f1:	e9 2f 06 00 00       	jmpq   402c25 <submitr+0x761>
  4025f6:	48 c7 44 24 20 00 00 	movq   $0x0,0x20(%rsp)
  4025fd:	00 00 
  4025ff:	48 c7 44 24 28 00 00 	movq   $0x0,0x28(%rsp)
  402606:	00 00 
  402608:	66 c7 44 24 20 02 00 	movw   $0x2,0x20(%rsp)
  40260f:	48 63 50 14          	movslq 0x14(%rax),%rdx
  402613:	48 8b 40 18          	mov    0x18(%rax),%rax
  402617:	48 8b 30             	mov    (%rax),%rsi
  40261a:	48 8d 7c 24 24       	lea    0x24(%rsp),%rdi
  40261f:	b9 0c 00 00 00       	mov    $0xc,%ecx
  402624:	e8 77 e7 ff ff       	callq  400da0 <__memmove_chk@plt>
  402629:	0f b7 44 24 0c       	movzwl 0xc(%rsp),%eax
  40262e:	66 c1 c8 08          	ror    $0x8,%ax
  402632:	66 89 44 24 22       	mov    %ax,0x22(%rsp)
  402637:	ba 10 00 00 00       	mov    $0x10,%edx
  40263c:	48 8d 74 24 20       	lea    0x20(%rsp),%rsi
  402641:	89 ef                	mov    %ebp,%edi
  402643:	e8 38 e8 ff ff       	callq  400e80 <connect@plt>
  402648:	85 c0                	test   %eax,%eax
  40264a:	79 67                	jns    4026b3 <submitr+0x1ef>
  40264c:	48 b8 45 72 72 6f 72 	movabs $0x55203a726f727245,%rax
  402653:	3a 20 55 
  402656:	48 89 03             	mov    %rax,(%rbx)
  402659:	48 b8 6e 61 62 6c 65 	movabs $0x6f7420656c62616e,%rax
  402660:	20 74 6f 
  402663:	48 89 43 08          	mov    %rax,0x8(%rbx)
  402667:	48 b8 20 63 6f 6e 6e 	movabs $0x7463656e6e6f6320,%rax
  40266e:	65 63 74 
  402671:	48 89 43 10          	mov    %rax,0x10(%rbx)
  402675:	48 b8 20 74 6f 20 74 	movabs $0x20656874206f7420,%rax
  40267c:	68 65 20 
  40267f:	48 89 43 18          	mov    %rax,0x18(%rbx)
  402683:	48 b8 41 75 74 6f 6c 	movabs $0x2062616c6f747541,%rax
  40268a:	61 62 20 
  40268d:	48 89 43 20          	mov    %rax,0x20(%rbx)
  402691:	c7 43 28 73 65 72 76 	movl   $0x76726573,0x28(%rbx)
  402698:	66 c7 43 2c 65 72    	movw   $0x7265,0x2c(%rbx)
  40269e:	c6 43 2e 00          	movb   $0x0,0x2e(%rbx)
  4026a2:	89 ef                	mov    %ebp,%edi
  4026a4:	e8 a7 e6 ff ff       	callq  400d50 <close@plt>
  4026a9:	b8 ff ff ff ff       	mov    $0xffffffff,%eax
  4026ae:	e9 72 05 00 00       	jmpq   402c25 <submitr+0x761>
  4026b3:	48 c7 c6 ff ff ff ff 	mov    $0xffffffffffffffff,%rsi
  4026ba:	b8 00 00 00 00       	mov    $0x0,%eax
  4026bf:	48 89 f1             	mov    %rsi,%rcx
  4026c2:	4c 89 e7             	mov    %r12,%rdi
  4026c5:	f2 ae                	repnz scas %es:(%rdi),%al
  4026c7:	48 f7 d1             	not    %rcx
  4026ca:	48 89 ca             	mov    %rcx,%rdx
  4026cd:	48 89 f1             	mov    %rsi,%rcx
  4026d0:	48 8b 3c 24          	mov    (%rsp),%rdi
  4026d4:	f2 ae                	repnz scas %es:(%rdi),%al
  4026d6:	48 f7 d1             	not    %rcx
  4026d9:	49 89 c8             	mov    %rcx,%r8
  4026dc:	48 89 f1             	mov    %rsi,%rcx
  4026df:	4c 89 f7             	mov    %r14,%rdi
  4026e2:	f2 ae                	repnz scas %es:(%rdi),%al
  4026e4:	48 f7 d1             	not    %rcx
  4026e7:	4d 8d 44 08 fe       	lea    -0x2(%r8,%rcx,1),%r8
  4026ec:	48 89 f1             	mov    %rsi,%rcx
  4026ef:	4c 89 ff             	mov    %r15,%rdi
  4026f2:	f2 ae                	repnz scas %es:(%rdi),%al
  4026f4:	48 89 c8             	mov    %rcx,%rax
  4026f7:	48 f7 d0             	not    %rax
  4026fa:	49 8d 4c 00 ff       	lea    -0x1(%r8,%rax,1),%rcx
  4026ff:	48 8d 44 52 fd       	lea    -0x3(%rdx,%rdx,2),%rax
  402704:	48 8d 84 01 80 00 00 	lea    0x80(%rcx,%rax,1),%rax
  40270b:	00 
  40270c:	48 3d 00 20 00 00    	cmp    $0x2000,%rax
  402712:	76 72                	jbe    402786 <submitr+0x2c2>
  402714:	48 b8 45 72 72 6f 72 	movabs $0x52203a726f727245,%rax
  40271b:	3a 20 52 
  40271e:	48 89 03             	mov    %rax,(%rbx)
  402721:	48 b8 65 73 75 6c 74 	movabs $0x747320746c757365,%rax
  402728:	20 73 74 
  40272b:	48 89 43 08          	mov    %rax,0x8(%rbx)
  40272f:	48 b8 72 69 6e 67 20 	movabs $0x6f6f7420676e6972,%rax
  402736:	74 6f 6f 
  402739:	48 89 43 10          	mov    %rax,0x10(%rbx)
  40273d:	48 b8 20 6c 61 72 67 	movabs $0x202e656772616c20,%rax
  402744:	65 2e 20 
  402747:	48 89 43 18          	mov    %rax,0x18(%rbx)
  40274b:	48 b8 49 6e 63 72 65 	movabs $0x6573616572636e49,%rax
  402752:	61 73 65 
  402755:	48 89 43 20          	mov    %rax,0x20(%rbx)
  402759:	48 b8 20 53 55 42 4d 	movabs $0x5254494d42555320,%rax
  402760:	49 54 52 
  402763:	48 89 43 28          	mov    %rax,0x28(%rbx)
  402767:	48 b8 5f 4d 41 58 42 	movabs $0x46554258414d5f,%rax
  40276e:	55 46 00 
  402771:	48 89 43 30          	mov    %rax,0x30(%rbx)
  402775:	89 ef                	mov    %ebp,%edi
  402777:	e8 d4 e5 ff ff       	callq  400d50 <close@plt>
  40277c:	b8 ff ff ff ff       	mov    $0xffffffff,%eax
  402781:	e9 9f 04 00 00       	jmpq   402c25 <submitr+0x761>
  402786:	48 8d b4 24 40 40 00 	lea    0x4040(%rsp),%rsi
  40278d:	00 
  40278e:	b9 00 04 00 00       	mov    $0x400,%ecx
  402793:	b8 00 00 00 00       	mov    $0x0,%eax
  402798:	48 89 f7             	mov    %rsi,%rdi
  40279b:	f3 48 ab             	rep stos %rax,%es:(%rdi)
  40279e:	4c 89 e7             	mov    %r12,%rdi
  4027a1:	e8 11 fc ff ff       	callq  4023b7 <urlencode>
  4027a6:	85 c0                	test   %eax,%eax
  4027a8:	0f 89 8a 00 00 00    	jns    402838 <submitr+0x374>
  4027ae:	48 b8 45 72 72 6f 72 	movabs $0x52203a726f727245,%rax
  4027b5:	3a 20 52 
  4027b8:	48 89 03             	mov    %rax,(%rbx)
  4027bb:	48 b8 65 73 75 6c 74 	movabs $0x747320746c757365,%rax
  4027c2:	20 73 74 
  4027c5:	48 89 43 08          	mov    %rax,0x8(%rbx)
  4027c9:	48 b8 72 69 6e 67 20 	movabs $0x6e6f6320676e6972,%rax
  4027d0:	63 6f 6e 
  4027d3:	48 89 43 10          	mov    %rax,0x10(%rbx)
  4027d7:	48 b8 74 61 69 6e 73 	movabs $0x6e6120736e696174,%rax
  4027de:	20 61 6e 
  4027e1:	48 89 43 18          	mov    %rax,0x18(%rbx)
  4027e5:	48 b8 20 69 6c 6c 65 	movabs $0x6c6167656c6c6920,%rax
  4027ec:	67 61 6c 
  4027ef:	48 89 43 20          	mov    %rax,0x20(%rbx)
  4027f3:	48 b8 20 6f 72 20 75 	movabs $0x72706e7520726f20,%rax
  4027fa:	6e 70 72 
  4027fd:	48 89 43 28          	mov    %rax,0x28(%rbx)
  402801:	48 b8 69 6e 74 61 62 	movabs $0x20656c6261746e69,%rax
  402808:	6c 65 20 
  40280b:	48 89 43 30          	mov    %rax,0x30(%rbx)
  40280f:	48 b8 63 68 61 72 61 	movabs $0x6574636172616863,%rax
  402816:	63 74 65 
  402819:	48 89 43 38          	mov    %rax,0x38(%rbx)
  40281d:	66 c7 43 40 72 2e    	movw   $0x2e72,0x40(%rbx)
  402823:	c6 43 42 00          	movb   $0x0,0x42(%rbx)
  402827:	89 ef                	mov    %ebp,%edi
  402829:	e8 22 e5 ff ff       	callq  400d50 <close@plt>
  40282e:	b8 ff ff ff ff       	mov    $0xffffffff,%eax
  402833:	e9 ed 03 00 00       	jmpq   402c25 <submitr+0x761>
  402838:	4c 8d a4 24 40 20 00 	lea    0x2040(%rsp),%r12
  40283f:	00 
  402840:	48 83 ec 08          	sub    $0x8,%rsp
  402844:	41 55                	push   %r13
  402846:	48 8d 84 24 50 40 00 	lea    0x4050(%rsp),%rax
  40284d:	00 
  40284e:	50                   	push   %rax
  40284f:	41 56                	push   %r14
  402851:	4d 89 f9             	mov    %r15,%r9
  402854:	4c 8b 44 24 20       	mov    0x20(%rsp),%r8
  402859:	b9 a8 37 40 00       	mov    $0x4037a8,%ecx
  40285e:	ba 00 20 00 00       	mov    $0x2000,%edx
  402863:	be 01 00 00 00       	mov    $0x1,%esi
  402868:	4c 89 e7             	mov    %r12,%rdi
  40286b:	b8 00 00 00 00       	mov    $0x0,%eax
  402870:	e8 2b e6 ff ff       	callq  400ea0 <__sprintf_chk@plt>
  402875:	b8 00 00 00 00       	mov    $0x0,%eax
  40287a:	48 c7 c1 ff ff ff ff 	mov    $0xffffffffffffffff,%rcx
  402881:	4c 89 e7             	mov    %r12,%rdi
  402884:	f2 ae                	repnz scas %es:(%rdi),%al
  402886:	48 f7 d1             	not    %rcx
  402889:	48 8d 51 ff          	lea    -0x1(%rcx),%rdx
  40288d:	48 83 c4 20          	add    $0x20,%rsp
  402891:	4c 89 e6             	mov    %r12,%rsi
  402894:	89 ef                	mov    %ebp,%edi
  402896:	e8 8b f9 ff ff       	callq  402226 <rio_writen>
  40289b:	48 85 c0             	test   %rax,%rax
  40289e:	79 6b                	jns    40290b <submitr+0x447>
  4028a0:	48 b8 45 72 72 6f 72 	movabs $0x43203a726f727245,%rax
  4028a7:	3a 20 43 
  4028aa:	48 89 03             	mov    %rax,(%rbx)
  4028ad:	48 b8 6c 69 65 6e 74 	movabs $0x6e7520746e65696c,%rax
  4028b4:	20 75 6e 
  4028b7:	48 89 43 08          	mov    %rax,0x8(%rbx)
  4028bb:	48 b8 61 62 6c 65 20 	movabs $0x206f7420656c6261,%rax
  4028c2:	74 6f 20 
  4028c5:	48 89 43 10          	mov    %rax,0x10(%rbx)
  4028c9:	48 b8 77 72 69 74 65 	movabs $0x6f74206574697277,%rax
  4028d0:	20 74 6f 
  4028d3:	48 89 43 18          	mov    %rax,0x18(%rbx)
  4028d7:	48 b8 20 74 68 65 20 	movabs $0x7475412065687420,%rax
  4028de:	41 75 74 
  4028e1:	48 89 43 20          	mov    %rax,0x20(%rbx)
  4028e5:	48 b8 6f 6c 61 62 20 	movabs $0x7265732062616c6f,%rax
  4028ec:	73 65 72 
  4028ef:	48 89 43 28          	mov    %rax,0x28(%rbx)
  4028f3:	c7 43 30 76 65 72 00 	movl   $0x726576,0x30(%rbx)
  4028fa:	89 ef                	mov    %ebp,%edi
  4028fc:	e8 4f e4 ff ff       	callq  400d50 <close@plt>
  402901:	b8 ff ff ff ff       	mov    $0xffffffff,%eax
  402906:	e9 1a 03 00 00       	jmpq   402c25 <submitr+0x761>
  40290b:	89 ee                	mov    %ebp,%esi
  40290d:	48 8d 7c 24 30       	lea    0x30(%rsp),%rdi
  402912:	e8 cf f8 ff ff       	callq  4021e6 <rio_readinitb>
  402917:	ba 00 20 00 00       	mov    $0x2000,%edx
  40291c:	48 8d b4 24 40 20 00 	lea    0x2040(%rsp),%rsi
  402923:	00 
  402924:	48 8d 7c 24 30       	lea    0x30(%rsp),%rdi
  402929:	e8 df f9 ff ff       	callq  40230d <rio_readlineb>
  40292e:	48 85 c0             	test   %rax,%rax
  402931:	7f 7f                	jg     4029b2 <submitr+0x4ee>
  402933:	48 b8 45 72 72 6f 72 	movabs $0x43203a726f727245,%rax
  40293a:	3a 20 43 
  40293d:	48 89 03             	mov    %rax,(%rbx)
  402940:	48 b8 6c 69 65 6e 74 	movabs $0x6e7520746e65696c,%rax
  402947:	20 75 6e 
  40294a:	48 89 43 08          	mov    %rax,0x8(%rbx)
  40294e:	48 b8 61 62 6c 65 20 	movabs $0x206f7420656c6261,%rax
  402955:	74 6f 20 
  402958:	48 89 43 10          	mov    %rax,0x10(%rbx)
  40295c:	48 b8 72 65 61 64 20 	movabs $0x7269662064616572,%rax
  402963:	66 69 72 
  402966:	48 89 43 18          	mov    %rax,0x18(%rbx)
  40296a:	48 b8 73 74 20 68 65 	movabs $0x6564616568207473,%rax
  402971:	61 64 65 
  402974:	48 89 43 20          	mov    %rax,0x20(%rbx)
  402978:	48 b8 72 20 66 72 6f 	movabs $0x41206d6f72662072,%rax
  40297f:	6d 20 41 
  402982:	48 89 43 28          	mov    %rax,0x28(%rbx)
  402986:	48 b8 75 74 6f 6c 61 	movabs $0x732062616c6f7475,%rax
  40298d:	62 20 73 
  402990:	48 89 43 30          	mov    %rax,0x30(%rbx)
  402994:	c7 43 38 65 72 76 65 	movl   $0x65767265,0x38(%rbx)
  40299b:	66 c7 43 3c 72 00    	movw   $0x72,0x3c(%rbx)
  4029a1:	89 ef                	mov    %ebp,%edi
  4029a3:	e8 a8 e3 ff ff       	callq  400d50 <close@plt>
  4029a8:	b8 ff ff ff ff       	mov    $0xffffffff,%eax
  4029ad:	e9 73 02 00 00       	jmpq   402c25 <submitr+0x761>
  4029b2:	4c 8d 84 24 40 80 00 	lea    0x8040(%rsp),%r8
  4029b9:	00 
  4029ba:	48 8d 4c 24 1c       	lea    0x1c(%rsp),%rcx
  4029bf:	48 8d 94 24 40 60 00 	lea    0x6040(%rsp),%rdx
  4029c6:	00 
  4029c7:	be 3f 38 40 00       	mov    $0x40383f,%esi
  4029cc:	48 8d bc 24 40 20 00 	lea    0x2040(%rsp),%rdi
  4029d3:	00 
  4029d4:	b8 00 00 00 00       	mov    $0x0,%eax
  4029d9:	e8 22 e4 ff ff       	callq  400e00 <__isoc99_sscanf@plt>
  4029de:	e9 92 00 00 00       	jmpq   402a75 <submitr+0x5b1>
  4029e3:	ba 00 20 00 00       	mov    $0x2000,%edx
  4029e8:	48 8d b4 24 40 20 00 	lea    0x2040(%rsp),%rsi
  4029ef:	00 
  4029f0:	48 8d 7c 24 30       	lea    0x30(%rsp),%rdi
  4029f5:	e8 13 f9 ff ff       	callq  40230d <rio_readlineb>
  4029fa:	48 85 c0             	test   %rax,%rax
  4029fd:	7f 76                	jg     402a75 <submitr+0x5b1>
  4029ff:	48 b8 45 72 72 6f 72 	movabs $0x43203a726f727245,%rax
  402a06:	3a 20 43 
  402a09:	48 89 03             	mov    %rax,(%rbx)
  402a0c:	48 b8 6c 69 65 6e 74 	movabs $0x6e7520746e65696c,%rax
  402a13:	20 75 6e 
  402a16:	48 89 43 08          	mov    %rax,0x8(%rbx)
  402a1a:	48 b8 61 62 6c 65 20 	movabs $0x206f7420656c6261,%rax
  402a21:	74 6f 20 
  402a24:	48 89 43 10          	mov    %rax,0x10(%rbx)
  402a28:	48 b8 72 65 61 64 20 	movabs $0x6165682064616572,%rax
  402a2f:	68 65 61 
  402a32:	48 89 43 18          	mov    %rax,0x18(%rbx)
  402a36:	48 b8 64 65 72 73 20 	movabs $0x6f72662073726564,%rax
  402a3d:	66 72 6f 
  402a40:	48 89 43 20          	mov    %rax,0x20(%rbx)
  402a44:	48 b8 6d 20 41 75 74 	movabs $0x616c6f747541206d,%rax
  402a4b:	6f 6c 61 
  402a4e:	48 89 43 28          	mov    %rax,0x28(%rbx)
  402a52:	48 b8 62 20 73 65 72 	movabs $0x7265767265732062,%rax
  402a59:	76 65 72 
  402a5c:	48 89 43 30          	mov    %rax,0x30(%rbx)
  402a60:	c6 43 38 00          	movb   $0x0,0x38(%rbx)
  402a64:	89 ef                	mov    %ebp,%edi
  402a66:	e8 e5 e2 ff ff       	callq  400d50 <close@plt>
  402a6b:	b8 ff ff ff ff       	mov    $0xffffffff,%eax
  402a70:	e9 b0 01 00 00       	jmpq   402c25 <submitr+0x761>
  402a75:	0f b6 94 24 40 20 00 	movzbl 0x2040(%rsp),%edx
  402a7c:	00 
  402a7d:	b8 0d 00 00 00       	mov    $0xd,%eax
  402a82:	29 d0                	sub    %edx,%eax
  402a84:	75 1b                	jne    402aa1 <submitr+0x5dd>
  402a86:	0f b6 94 24 41 20 00 	movzbl 0x2041(%rsp),%edx
  402a8d:	00 
  402a8e:	b8 0a 00 00 00       	mov    $0xa,%eax
  402a93:	29 d0                	sub    %edx,%eax
  402a95:	75 0a                	jne    402aa1 <submitr+0x5dd>
  402a97:	0f b6 84 24 42 20 00 	movzbl 0x2042(%rsp),%eax
  402a9e:	00 
  402a9f:	f7 d8                	neg    %eax
  402aa1:	85 c0                	test   %eax,%eax
  402aa3:	0f 85 3a ff ff ff    	jne    4029e3 <submitr+0x51f>
  402aa9:	ba 00 20 00 00       	mov    $0x2000,%edx
  402aae:	48 8d b4 24 40 20 00 	lea    0x2040(%rsp),%rsi
  402ab5:	00 
  402ab6:	48 8d 7c 24 30       	lea    0x30(%rsp),%rdi
  402abb:	e8 4d f8 ff ff       	callq  40230d <rio_readlineb>
  402ac0:	48 85 c0             	test   %rax,%rax
  402ac3:	0f 8f 80 00 00 00    	jg     402b49 <submitr+0x685>
  402ac9:	48 b8 45 72 72 6f 72 	movabs $0x43203a726f727245,%rax
  402ad0:	3a 20 43 
  402ad3:	48 89 03             	mov    %rax,(%rbx)
  402ad6:	48 b8 6c 69 65 6e 74 	movabs $0x6e7520746e65696c,%rax
  402add:	20 75 6e 
  402ae0:	48 89 43 08          	mov    %rax,0x8(%rbx)
  402ae4:	48 b8 61 62 6c 65 20 	movabs $0x206f7420656c6261,%rax
  402aeb:	74 6f 20 
  402aee:	48 89 43 10          	mov    %rax,0x10(%rbx)
  402af2:	48 b8 72 65 61 64 20 	movabs $0x6174732064616572,%rax
  402af9:	73 74 61 
  402afc:	48 89 43 18          	mov    %rax,0x18(%rbx)
  402b00:	48 b8 74 75 73 20 6d 	movabs $0x7373656d20737574,%rax
  402b07:	65 73 73 
  402b0a:	48 89 43 20          	mov    %rax,0x20(%rbx)
  402b0e:	48 b8 61 67 65 20 66 	movabs $0x6d6f726620656761,%rax
  402b15:	72 6f 6d 
  402b18:	48 89 43 28          	mov    %rax,0x28(%rbx)
  402b1c:	48 b8 20 41 75 74 6f 	movabs $0x62616c6f74754120,%rax
  402b23:	6c 61 62 
  402b26:	48 89 43 30          	mov    %rax,0x30(%rbx)
  402b2a:	48 b8 20 73 65 72 76 	movabs $0x72657672657320,%rax
  402b31:	65 72 00 
  402b34:	48 89 43 38          	mov    %rax,0x38(%rbx)
  402b38:	89 ef                	mov    %ebp,%edi
  402b3a:	e8 11 e2 ff ff       	callq  400d50 <close@plt>
  402b3f:	b8 ff ff ff ff       	mov    $0xffffffff,%eax
  402b44:	e9 dc 00 00 00       	jmpq   402c25 <submitr+0x761>
  402b49:	44 8b 44 24 1c       	mov    0x1c(%rsp),%r8d
  402b4e:	41 81 f8 c8 00 00 00 	cmp    $0xc8,%r8d
  402b55:	74 37                	je     402b8e <submitr+0x6ca>
  402b57:	4c 8d 8c 24 40 80 00 	lea    0x8040(%rsp),%r9
  402b5e:	00 
  402b5f:	b9 08 38 40 00       	mov    $0x403808,%ecx
  402b64:	48 c7 c2 ff ff ff ff 	mov    $0xffffffffffffffff,%rdx
  402b6b:	be 01 00 00 00       	mov    $0x1,%esi
  402b70:	48 89 df             	mov    %rbx,%rdi
  402b73:	b8 00 00 00 00       	mov    $0x0,%eax
  402b78:	e8 23 e3 ff ff       	callq  400ea0 <__sprintf_chk@plt>
  402b7d:	89 ef                	mov    %ebp,%edi
  402b7f:	e8 cc e1 ff ff       	callq  400d50 <close@plt>
  402b84:	b8 ff ff ff ff       	mov    $0xffffffff,%eax
  402b89:	e9 97 00 00 00       	jmpq   402c25 <submitr+0x761>
  402b8e:	48 8d b4 24 40 20 00 	lea    0x2040(%rsp),%rsi
  402b95:	00 
  402b96:	48 89 df             	mov    %rbx,%rdi
  402b99:	e8 42 e1 ff ff       	callq  400ce0 <strcpy@plt>
  402b9e:	89 ef                	mov    %ebp,%edi
  402ba0:	e8 ab e1 ff ff       	callq  400d50 <close@plt>
  402ba5:	0f b6 03             	movzbl (%rbx),%eax
  402ba8:	ba 4f 00 00 00       	mov    $0x4f,%edx
  402bad:	29 c2                	sub    %eax,%edx
  402baf:	75 22                	jne    402bd3 <submitr+0x70f>
  402bb1:	0f b6 4b 01          	movzbl 0x1(%rbx),%ecx
  402bb5:	b8 4b 00 00 00       	mov    $0x4b,%eax
  402bba:	29 c8                	sub    %ecx,%eax
  402bbc:	75 17                	jne    402bd5 <submitr+0x711>
  402bbe:	0f b6 4b 02          	movzbl 0x2(%rbx),%ecx
  402bc2:	b8 0a 00 00 00       	mov    $0xa,%eax
  402bc7:	29 c8                	sub    %ecx,%eax
  402bc9:	75 0a                	jne    402bd5 <submitr+0x711>
  402bcb:	0f b6 43 03          	movzbl 0x3(%rbx),%eax
  402bcf:	f7 d8                	neg    %eax
  402bd1:	eb 02                	jmp    402bd5 <submitr+0x711>
  402bd3:	89 d0                	mov    %edx,%eax
  402bd5:	85 c0                	test   %eax,%eax
  402bd7:	74 40                	je     402c19 <submitr+0x755>
  402bd9:	bf 50 38 40 00       	mov    $0x403850,%edi
  402bde:	b9 05 00 00 00       	mov    $0x5,%ecx
  402be3:	48 89 de             	mov    %rbx,%rsi
  402be6:	f3 a6                	repz cmpsb %es:(%rdi),%ds:(%rsi)
  402be8:	0f 97 c0             	seta   %al
  402beb:	0f 92 c1             	setb   %cl
  402bee:	29 c8                	sub    %ecx,%eax
  402bf0:	0f be c0             	movsbl %al,%eax
  402bf3:	85 c0                	test   %eax,%eax
  402bf5:	74 2e                	je     402c25 <submitr+0x761>
  402bf7:	85 d2                	test   %edx,%edx
  402bf9:	75 13                	jne    402c0e <submitr+0x74a>
  402bfb:	0f b6 43 01          	movzbl 0x1(%rbx),%eax
  402bff:	ba 4b 00 00 00       	mov    $0x4b,%edx
  402c04:	29 c2                	sub    %eax,%edx
  402c06:	75 06                	jne    402c0e <submitr+0x74a>
  402c08:	0f b6 53 02          	movzbl 0x2(%rbx),%edx
  402c0c:	f7 da                	neg    %edx
  402c0e:	85 d2                	test   %edx,%edx
  402c10:	75 0e                	jne    402c20 <submitr+0x75c>
  402c12:	b8 00 00 00 00       	mov    $0x0,%eax
  402c17:	eb 0c                	jmp    402c25 <submitr+0x761>
  402c19:	b8 00 00 00 00       	mov    $0x0,%eax
  402c1e:	eb 05                	jmp    402c25 <submitr+0x761>
  402c20:	b8 ff ff ff ff       	mov    $0xffffffff,%eax
  402c25:	48 8b 9c 24 48 a0 00 	mov    0xa048(%rsp),%rbx
  402c2c:	00 
  402c2d:	64 48 33 1c 25 28 00 	xor    %fs:0x28,%rbx
  402c34:	00 00 
  402c36:	74 05                	je     402c3d <submitr+0x779>
  402c38:	e8 d3 e0 ff ff       	callq  400d10 <__stack_chk_fail@plt>
  402c3d:	48 81 c4 58 a0 00 00 	add    $0xa058,%rsp
  402c44:	5b                   	pop    %rbx
  402c45:	5d                   	pop    %rbp
  402c46:	41 5c                	pop    %r12
  402c48:	41 5d                	pop    %r13
  402c4a:	41 5e                	pop    %r14
  402c4c:	41 5f                	pop    %r15
  402c4e:	c3                   	retq   

0000000000402c4f <init_timeout>:
  402c4f:	85 ff                	test   %edi,%edi
  402c51:	74 23                	je     402c76 <init_timeout+0x27>
  402c53:	53                   	push   %rbx
  402c54:	89 fb                	mov    %edi,%ebx
  402c56:	85 ff                	test   %edi,%edi
  402c58:	79 05                	jns    402c5f <init_timeout+0x10>
  402c5a:	bb 00 00 00 00       	mov    $0x0,%ebx
  402c5f:	be f8 21 40 00       	mov    $0x4021f8,%esi
  402c64:	bf 0e 00 00 00       	mov    $0xe,%edi
  402c69:	e8 12 e1 ff ff       	callq  400d80 <signal@plt>
  402c6e:	89 df                	mov    %ebx,%edi
  402c70:	e8 cb e0 ff ff       	callq  400d40 <alarm@plt>
  402c75:	5b                   	pop    %rbx
  402c76:	f3 c3                	repz retq 

0000000000402c78 <init_driver>:
  402c78:	55                   	push   %rbp
  402c79:	53                   	push   %rbx
  402c7a:	48 83 ec 28          	sub    $0x28,%rsp
  402c7e:	48 89 fd             	mov    %rdi,%rbp
  402c81:	64 48 8b 04 25 28 00 	mov    %fs:0x28,%rax
  402c88:	00 00 
  402c8a:	48 89 44 24 18       	mov    %rax,0x18(%rsp)
  402c8f:	31 c0                	xor    %eax,%eax
  402c91:	be 01 00 00 00       	mov    $0x1,%esi
  402c96:	bf 0d 00 00 00       	mov    $0xd,%edi
  402c9b:	e8 e0 e0 ff ff       	callq  400d80 <signal@plt>
  402ca0:	be 01 00 00 00       	mov    $0x1,%esi
  402ca5:	bf 1d 00 00 00       	mov    $0x1d,%edi
  402caa:	e8 d1 e0 ff ff       	callq  400d80 <signal@plt>
  402caf:	be 01 00 00 00       	mov    $0x1,%esi
  402cb4:	bf 1d 00 00 00       	mov    $0x1d,%edi
  402cb9:	e8 c2 e0 ff ff       	callq  400d80 <signal@plt>
  402cbe:	ba 00 00 00 00       	mov    $0x0,%edx
  402cc3:	be 01 00 00 00       	mov    $0x1,%esi
  402cc8:	bf 02 00 00 00       	mov    $0x2,%edi
  402ccd:	e8 de e1 ff ff       	callq  400eb0 <socket@plt>
  402cd2:	85 c0                	test   %eax,%eax
  402cd4:	79 4f                	jns    402d25 <init_driver+0xad>
  402cd6:	48 b8 45 72 72 6f 72 	movabs $0x43203a726f727245,%rax
  402cdd:	3a 20 43 
  402ce0:	48 89 45 00          	mov    %rax,0x0(%rbp)
  402ce4:	48 b8 6c 69 65 6e 74 	movabs $0x6e7520746e65696c,%rax
  402ceb:	20 75 6e 
  402cee:	48 89 45 08          	mov    %rax,0x8(%rbp)
  402cf2:	48 b8 61 62 6c 65 20 	movabs $0x206f7420656c6261,%rax
  402cf9:	74 6f 20 
  402cfc:	48 89 45 10          	mov    %rax,0x10(%rbp)
  402d00:	48 b8 63 72 65 61 74 	movabs $0x7320657461657263,%rax
  402d07:	65 20 73 
  402d0a:	48 89 45 18          	mov    %rax,0x18(%rbp)
  402d0e:	c7 45 20 6f 63 6b 65 	movl   $0x656b636f,0x20(%rbp)
  402d15:	66 c7 45 24 74 00    	movw   $0x74,0x24(%rbp)
  402d1b:	b8 ff ff ff ff       	mov    $0xffffffff,%eax
  402d20:	e9 2a 01 00 00       	jmpq   402e4f <init_driver+0x1d7>
  402d25:	89 c3                	mov    %eax,%ebx
  402d27:	bf 75 33 40 00       	mov    $0x403375,%edi
  402d2c:	e8 5f e0 ff ff       	callq  400d90 <gethostbyname@plt>
  402d31:	48 85 c0             	test   %rax,%rax
  402d34:	75 68                	jne    402d9e <init_driver+0x126>
  402d36:	48 b8 45 72 72 6f 72 	movabs $0x44203a726f727245,%rax
  402d3d:	3a 20 44 
  402d40:	48 89 45 00          	mov    %rax,0x0(%rbp)
  402d44:	48 b8 4e 53 20 69 73 	movabs $0x6e7520736920534e,%rax
  402d4b:	20 75 6e 
  402d4e:	48 89 45 08          	mov    %rax,0x8(%rbp)
  402d52:	48 b8 61 62 6c 65 20 	movabs $0x206f7420656c6261,%rax
  402d59:	74 6f 20 
  402d5c:	48 89 45 10          	mov    %rax,0x10(%rbp)
  402d60:	48 b8 72 65 73 6f 6c 	movabs $0x2065766c6f736572,%rax
  402d67:	76 65 20 
  402d6a:	48 89 45 18          	mov    %rax,0x18(%rbp)
  402d6e:	48 b8 73 65 72 76 65 	movabs $0x6120726576726573,%rax
  402d75:	72 20 61 
  402d78:	48 89 45 20          	mov    %rax,0x20(%rbp)
  402d7c:	c7 45 28 64 64 72 65 	movl   $0x65726464,0x28(%rbp)
  402d83:	66 c7 45 2c 73 73    	movw   $0x7373,0x2c(%rbp)
  402d89:	c6 45 2e 00          	movb   $0x0,0x2e(%rbp)
  402d8d:	89 df                	mov    %ebx,%edi
  402d8f:	e8 bc df ff ff       	callq  400d50 <close@plt>
  402d94:	b8 ff ff ff ff       	mov    $0xffffffff,%eax
  402d99:	e9 b1 00 00 00       	jmpq   402e4f <init_driver+0x1d7>
  402d9e:	48 c7 04 24 00 00 00 	movq   $0x0,(%rsp)
  402da5:	00 
  402da6:	48 c7 44 24 08 00 00 	movq   $0x0,0x8(%rsp)
  402dad:	00 00 
  402daf:	66 c7 04 24 02 00    	movw   $0x2,(%rsp)
  402db5:	48 63 50 14          	movslq 0x14(%rax),%rdx
  402db9:	48 8b 40 18          	mov    0x18(%rax),%rax
  402dbd:	48 8b 30             	mov    (%rax),%rsi
  402dc0:	48 8d 7c 24 04       	lea    0x4(%rsp),%rdi
  402dc5:	b9 0c 00 00 00       	mov    $0xc,%ecx
  402dca:	e8 d1 df ff ff       	callq  400da0 <__memmove_chk@plt>
  402dcf:	66 c7 44 24 02 00 50 	movw   $0x5000,0x2(%rsp)
  402dd6:	ba 10 00 00 00       	mov    $0x10,%edx
  402ddb:	48 89 e6             	mov    %rsp,%rsi
  402dde:	89 df                	mov    %ebx,%edi
  402de0:	e8 9b e0 ff ff       	callq  400e80 <connect@plt>
  402de5:	85 c0                	test   %eax,%eax
  402de7:	79 50                	jns    402e39 <init_driver+0x1c1>
  402de9:	48 b8 45 72 72 6f 72 	movabs $0x55203a726f727245,%rax
  402df0:	3a 20 55 
  402df3:	48 89 45 00          	mov    %rax,0x0(%rbp)
  402df7:	48 b8 6e 61 62 6c 65 	movabs $0x6f7420656c62616e,%rax
  402dfe:	20 74 6f 
  402e01:	48 89 45 08          	mov    %rax,0x8(%rbp)
  402e05:	48 b8 20 63 6f 6e 6e 	movabs $0x7463656e6e6f6320,%rax
  402e0c:	65 63 74 
  402e0f:	48 89 45 10          	mov    %rax,0x10(%rbp)
  402e13:	48 b8 20 74 6f 20 73 	movabs $0x76726573206f7420,%rax
  402e1a:	65 72 76 
  402e1d:	48 89 45 18          	mov    %rax,0x18(%rbp)
  402e21:	66 c7 45 20 65 72    	movw   $0x7265,0x20(%rbp)
  402e27:	c6 45 22 00          	movb   $0x0,0x22(%rbp)
  402e2b:	89 df                	mov    %ebx,%edi
  402e2d:	e8 1e df ff ff       	callq  400d50 <close@plt>
  402e32:	b8 ff ff ff ff       	mov    $0xffffffff,%eax
  402e37:	eb 16                	jmp    402e4f <init_driver+0x1d7>
  402e39:	89 df                	mov    %ebx,%edi
  402e3b:	e8 10 df ff ff       	callq  400d50 <close@plt>
  402e40:	66 c7 45 00 4f 4b    	movw   $0x4b4f,0x0(%rbp)
  402e46:	c6 45 02 00          	movb   $0x0,0x2(%rbp)
  402e4a:	b8 00 00 00 00       	mov    $0x0,%eax
  402e4f:	48 8b 4c 24 18       	mov    0x18(%rsp),%rcx
  402e54:	64 48 33 0c 25 28 00 	xor    %fs:0x28,%rcx
  402e5b:	00 00 
  402e5d:	74 05                	je     402e64 <init_driver+0x1ec>
  402e5f:	e8 ac de ff ff       	callq  400d10 <__stack_chk_fail@plt>
  402e64:	48 83 c4 28          	add    $0x28,%rsp
  402e68:	5b                   	pop    %rbx
  402e69:	5d                   	pop    %rbp
  402e6a:	c3                   	retq   

0000000000402e6b <driver_post>:
  402e6b:	53                   	push   %rbx
  402e6c:	4c 89 cb             	mov    %r9,%rbx
  402e6f:	45 85 c0             	test   %r8d,%r8d
  402e72:	74 27                	je     402e9b <driver_post+0x30>
  402e74:	48 89 ca             	mov    %rcx,%rdx
  402e77:	be 55 38 40 00       	mov    $0x403855,%esi
  402e7c:	bf 01 00 00 00       	mov    $0x1,%edi
  402e81:	b8 00 00 00 00       	mov    $0x0,%eax
  402e86:	e8 95 df ff ff       	callq  400e20 <__printf_chk@plt>
  402e8b:	66 c7 03 4f 4b       	movw   $0x4b4f,(%rbx)
  402e90:	c6 43 02 00          	movb   $0x0,0x2(%rbx)
  402e94:	b8 00 00 00 00       	mov    $0x0,%eax
  402e99:	eb 3f                	jmp    402eda <driver_post+0x6f>
  402e9b:	48 85 ff             	test   %rdi,%rdi
  402e9e:	74 2c                	je     402ecc <driver_post+0x61>
  402ea0:	80 3f 00             	cmpb   $0x0,(%rdi)
  402ea3:	74 27                	je     402ecc <driver_post+0x61>
  402ea5:	48 83 ec 08          	sub    $0x8,%rsp
  402ea9:	41 51                	push   %r9
  402eab:	49 89 c9             	mov    %rcx,%r9
  402eae:	49 89 d0             	mov    %rdx,%r8
  402eb1:	48 89 f9             	mov    %rdi,%rcx
  402eb4:	48 89 f2             	mov    %rsi,%rdx
  402eb7:	be 50 00 00 00       	mov    $0x50,%esi
  402ebc:	bf 75 33 40 00       	mov    $0x403375,%edi
  402ec1:	e8 fe f5 ff ff       	callq  4024c4 <submitr>
  402ec6:	48 83 c4 10          	add    $0x10,%rsp
  402eca:	eb 0e                	jmp    402eda <driver_post+0x6f>
  402ecc:	66 c7 03 4f 4b       	movw   $0x4b4f,(%rbx)
  402ed1:	c6 43 02 00          	movb   $0x0,0x2(%rbx)
  402ed5:	b8 00 00 00 00       	mov    $0x0,%eax
  402eda:	5b                   	pop    %rbx
  402edb:	c3                   	retq   

0000000000402edc <check>:
  402edc:	89 f8                	mov    %edi,%eax
  402ede:	c1 e8 1c             	shr    $0x1c,%eax
  402ee1:	85 c0                	test   %eax,%eax
  402ee3:	74 1d                	je     402f02 <check+0x26>
  402ee5:	b9 00 00 00 00       	mov    $0x0,%ecx
  402eea:	eb 0b                	jmp    402ef7 <check+0x1b>
  402eec:	89 f8                	mov    %edi,%eax
  402eee:	d3 e8                	shr    %cl,%eax
  402ef0:	3c 0a                	cmp    $0xa,%al
  402ef2:	74 14                	je     402f08 <check+0x2c>
  402ef4:	83 c1 08             	add    $0x8,%ecx
  402ef7:	83 f9 1f             	cmp    $0x1f,%ecx
  402efa:	7e f0                	jle    402eec <check+0x10>
  402efc:	b8 01 00 00 00       	mov    $0x1,%eax
  402f01:	c3                   	retq   
  402f02:	b8 00 00 00 00       	mov    $0x0,%eax
  402f07:	c3                   	retq   
  402f08:	b8 00 00 00 00       	mov    $0x0,%eax
  402f0d:	c3                   	retq   

0000000000402f0e <gencookie>:
  402f0e:	53                   	push   %rbx
  402f0f:	83 c7 01             	add    $0x1,%edi
  402f12:	e8 a9 dd ff ff       	callq  400cc0 <srandom@plt>
  402f17:	e8 c4 de ff ff       	callq  400de0 <random@plt>
  402f1c:	89 c3                	mov    %eax,%ebx
  402f1e:	89 c7                	mov    %eax,%edi
  402f20:	e8 b7 ff ff ff       	callq  402edc <check>
  402f25:	85 c0                	test   %eax,%eax
  402f27:	74 ee                	je     402f17 <gencookie+0x9>
  402f29:	89 d8                	mov    %ebx,%eax
  402f2b:	5b                   	pop    %rbx
  402f2c:	c3                   	retq   
  402f2d:	0f 1f 00             	nopl   (%rax)

0000000000402f30 <__libc_csu_init>:
  402f30:	41 57                	push   %r15
  402f32:	41 56                	push   %r14
  402f34:	41 89 ff             	mov    %edi,%r15d
  402f37:	41 55                	push   %r13
  402f39:	41 54                	push   %r12
  402f3b:	4c 8d 25 be 1e 20 00 	lea    0x201ebe(%rip),%r12        # 604e00 <__frame_dummy_init_array_entry>
  402f42:	55                   	push   %rbp
  402f43:	48 8d 2d be 1e 20 00 	lea    0x201ebe(%rip),%rbp        # 604e08 <__init_array_end>
  402f4a:	53                   	push   %rbx
  402f4b:	49 89 f6             	mov    %rsi,%r14
  402f4e:	49 89 d5             	mov    %rdx,%r13
  402f51:	4c 29 e5             	sub    %r12,%rbp
  402f54:	48 83 ec 08          	sub    $0x8,%rsp
  402f58:	48 c1 fd 03          	sar    $0x3,%rbp
  402f5c:	e8 07 dd ff ff       	callq  400c68 <_init>
  402f61:	48 85 ed             	test   %rbp,%rbp
  402f64:	74 20                	je     402f86 <__libc_csu_init+0x56>
  402f66:	31 db                	xor    %ebx,%ebx
  402f68:	0f 1f 84 00 00 00 00 	nopl   0x0(%rax,%rax,1)
  402f6f:	00 
  402f70:	4c 89 ea             	mov    %r13,%rdx
  402f73:	4c 89 f6             	mov    %r14,%rsi
  402f76:	44 89 ff             	mov    %r15d,%edi
  402f79:	41 ff 14 dc          	callq  *(%r12,%rbx,8)
  402f7d:	48 83 c3 01          	add    $0x1,%rbx
  402f81:	48 39 eb             	cmp    %rbp,%rbx
  402f84:	75 ea                	jne    402f70 <__libc_csu_init+0x40>
  402f86:	48 83 c4 08          	add    $0x8,%rsp
  402f8a:	5b                   	pop    %rbx
  402f8b:	5d                   	pop    %rbp
  402f8c:	41 5c                	pop    %r12
  402f8e:	41 5d                	pop    %r13
  402f90:	41 5e                	pop    %r14
  402f92:	41 5f                	pop    %r15
  402f94:	c3                   	retq   
  402f95:	90                   	nop
  402f96:	66 2e 0f 1f 84 00 00 	nopw   %cs:0x0(%rax,%rax,1)
  402f9d:	00 00 00 

0000000000402fa0 <__libc_csu_fini>:
  402fa0:	f3 c3                	repz retq 

Disassembly of section .fini:

0000000000402fa4 <_fini>:
  402fa4:	48 83 ec 08          	sub    $0x8,%rsp
  402fa8:	48 83 c4 08          	add    $0x8,%rsp
  402fac:	c3                   	retq   
